(dp0
S'lambda_a1_normal'
p1
F0.0
sS'sigmas_normal'
p2
(lp3
sS'batchsize'
p4
I25
sS'epochs'
p5
(lp6
I0
aF0.0
aF0.025
aF0.05
aF0.075
aF0.1
aF0.125
aF0.15
aF0.175
aF0.2
aF0.225
aF0.25
aF0.275
aF0.3
aF0.325
aF0.35
aF0.375
aF0.4
aF0.425
aF0.45
aF0.475
aF0.5
aF0.525
aF0.55
aF0.575
aF0.6
aF0.625
aF0.65
aF0.675
aF0.7
aF0.725
aF0.75
aF0.775
aF0.8
aF0.825
aF0.85
aF0.875
aF0.9
aF0.925
aF0.95
aF0.975
aF1.0
aF1.025
aF1.05
aF1.075
aF1.1
aF1.125
aF1.15
aF1.175
aF1.2
aF1.225
aF1.25
aF1.275
aF1.3
aF1.325
aF1.35
aF1.375
aF1.4
aF1.425
aF1.45
aF1.475
aF1.5
aF1.525
aF1.55
aF1.575
aF1.6
aF1.625
aF1.65
aF1.675
aF1.7
aF1.725
aF1.75
aF1.775
aF1.8
aF1.825
aF1.85
aF1.875
aF1.9
aF1.925
aF1.95
aF1.975
aF2.0
aF2.025
aF2.05
aF2.075
aF2.1
aF2.125
aF2.15
aF2.175
aF2.2
aF2.225
aF2.25
aF2.275
aF2.3
aF2.325
aF2.35
aF2.375
aF2.4
aF2.425
aF2.45
aF2.475
aF2.5
aF2.525
aF2.55
aF2.575
aF2.6
aF2.625
aF2.65
aF2.675
aF2.7
aF2.725
aF2.75
aF2.775
aF2.8
aF2.825
aF2.85
aF2.875
aF2.9
aF2.925
aF2.95
aF2.975
aF3.0
aF3.025
aF3.05
aF3.075
aF3.1
aF3.125
aF3.15
aF3.175
aF3.2
aF3.225
aF3.25
aF3.275
aF3.3
aF3.325
aF3.35
aF3.375
aF3.4
aF3.425
aF3.45
aF3.475
aF3.5
aF3.525
aF3.55
aF3.575
aF3.6
aF3.625
aF3.65
aF3.675
aF3.7
aF3.725
aF3.75
aF3.775
aF3.8
aF3.825
aF3.85
aF3.875
aF3.9
aF3.925
aF3.95
aF3.975
aF4.0
aF4.025
aF4.05
aF4.075
aF4.1
aF4.125
aF4.15
aF4.175
aF4.2
aF4.225
aF4.25
aF4.275
aF4.3
aF4.325
aF4.35
aF4.375
aF4.4
aF4.425
aF4.45
aF4.475
aF4.5
aF4.525
aF4.55
aF4.575
aF4.6
aF4.625
aF4.65
aF4.675
aF4.7
aF4.725
aF4.75
aF4.775
aF4.8
aF4.825
aF4.85
aF4.875
aF4.9
aF4.925
aF4.95
aF4.975
aF5.0
aF5.025
aF5.05
aF5.075
aF5.1
aF5.125
aF5.15
aF5.175
aF5.2
aF5.225
aF5.25
aF5.275
aF5.3
aF5.325
aF5.35
aF5.375
aF5.4
aF5.425
aF5.45
aF5.475
aF5.5
aF5.525
aF5.55
aF5.575
aF5.6
aF5.625
aF5.65
aF5.675
aF5.7
aF5.725
aF5.75
aF5.775
aF5.8
aF5.825
aF5.85
aF5.875
aF5.9
aF5.925
aF5.95
aF5.975
aF6.0
aF6.025
aF6.05
aF6.075
aF6.1
aF6.125
aF6.15
aF6.175
aF6.2
aF6.225
aF6.25
aF6.275
aF6.3
aF6.325
aF6.35
aF6.375
aF6.4
aF6.425
aF6.45
aF6.475
aF6.5
aF6.525
aF6.55
aF6.575
aF6.6
aF6.625
aF6.65
aF6.675
aF6.7
aF6.725
aF6.75
aF6.775
aF6.8
aF6.825
aF6.85
aF6.875
aF6.9
aF6.925
aF6.95
aF6.975
asS'eval_batchsize'
p7
I100
sS'seed'
p8
I66478
sS'lambda_a1_resize'
p9
F0.0
sS'sigmas_resize'
p10
(lp11
sS'max_epochs'
p12
I200
sS'fftFunction'
p13
S'absoluteValue'
p14
sS'fixed_sigmas'
p15
I01
sS'normalize'
p16
I01
sS'save_freq'
p17
I1
sS'alphas_normal'
p18
(lp19
sS'loss_resize'
p20
(lp21
sS'acc_val_resize'
p22
(lp23
sS'path_model_resize'
p24
S'/results/results-1000-1/para-resize.ckpt'
p25
sS'eval_epochs'
p26
(lp27
I180
aI181
aI182
aI183
aI184
aI185
aI186
aI187
aI188
aI189
aI190
aI191
aI192
aI193
aI194
aI195
aI196
aI197
aI198
aI199
asS'number_of_training_samples'
p28
I1000
sS'sigmas'
p29
(lp30
(lp31
cnumpy.core.multiarray
scalar
p32
(cnumpy
dtype
p33
(S'f4'
p34
I0
I1
tp35
Rp36
(I3
S'<'
p37
NNNI-1
I-1
I0
tp38
bS'\x00\x00\xc0?'
p39
tp40
Rp41
ag32
(g36
S'\x00\x00\xc0?'
p42
tp43
Rp44
ag32
(g36
S'\x00\x00\xc0?'
p45
tp46
Rp47
ag32
(g36
S'\x00\x00\xc0?'
p48
tp49
Rp50
ag32
(g36
S'\x00\x00\xc0?'
p51
tp52
Rp53
ag32
(g36
S'\x00\x00\xc0?'
p54
tp55
Rp56
ag32
(g36
S'\x00\x00\xc0?'
p57
tp58
Rp59
ag32
(g36
S'\x00\x00\xc0?'
p60
tp61
Rp62
ag32
(g36
S'\x00\x00\xc0?'
p63
tp64
Rp65
ag32
(g36
S'\x00\x00\xc0?'
p66
tp67
Rp68
ag32
(g36
S'\x00\x00\xc0?'
p69
tp70
Rp71
ag32
(g36
S'\x00\x00\xc0?'
p72
tp73
Rp74
ag32
(g36
S'\x00\x00\xc0?'
p75
tp76
Rp77
ag32
(g36
S'\x00\x00\xc0?'
p78
tp79
Rp80
ag32
(g36
S'\x00\x00\xc0?'
p81
tp82
Rp83
ag32
(g36
S'\x00\x00\xc0?'
p84
tp85
Rp86
ag32
(g36
S'\x00\x00\xc0?'
p87
tp88
Rp89
ag32
(g36
S'\x00\x00\xc0?'
p90
tp91
Rp92
ag32
(g36
S'\x00\x00\xc0?'
p93
tp94
Rp95
ag32
(g36
S'\x00\x00\xc0?'
p96
tp97
Rp98
ag32
(g36
S'\x00\x00\xc0?'
p99
tp100
Rp101
ag32
(g36
S'\x00\x00\xc0?'
p102
tp103
Rp104
ag32
(g36
S'\x00\x00\xc0?'
p105
tp106
Rp107
ag32
(g36
S'\x00\x00\xc0?'
p108
tp109
Rp110
ag32
(g36
S'\x00\x00\xc0?'
p111
tp112
Rp113
ag32
(g36
S'\x00\x00\xc0?'
p114
tp115
Rp116
ag32
(g36
S'\x00\x00\xc0?'
p117
tp118
Rp119
ag32
(g36
S'\x00\x00\xc0?'
p120
tp121
Rp122
ag32
(g36
S'\x00\x00\xc0?'
p123
tp124
Rp125
ag32
(g36
S'\x00\x00\xc0?'
p126
tp127
Rp128
ag32
(g36
S'\x00\x00\xc0?'
p129
tp130
Rp131
ag32
(g36
S'\x00\x00\xc0?'
p132
tp133
Rp134
ag32
(g36
S'\x00\x00\xc0?'
p135
tp136
Rp137
ag32
(g36
S'\x00\x00\xc0?'
p138
tp139
Rp140
ag32
(g36
S'\x00\x00\xc0?'
p141
tp142
Rp143
ag32
(g36
S'\x00\x00\xc0?'
p144
tp145
Rp146
ag32
(g36
S'\x00\x00\xc0?'
p147
tp148
Rp149
ag32
(g36
S'\x00\x00\xc0?'
p150
tp151
Rp152
ag32
(g36
S'\x00\x00\xc0?'
p153
tp154
Rp155
ag32
(g36
S'\x00\x00\xc0?'
p156
tp157
Rp158
ag32
(g36
S'\x00\x00\xc0?'
p159
tp160
Rp161
ag32
(g36
S'\x00\x00\xc0?'
p162
tp163
Rp164
ag32
(g36
S'\x00\x00\xc0?'
p165
tp166
Rp167
ag32
(g36
S'\x00\x00\xc0?'
p168
tp169
Rp170
ag32
(g36
S'\x00\x00\xc0?'
p171
tp172
Rp173
ag32
(g36
S'\x00\x00\xc0?'
p174
tp175
Rp176
ag32
(g36
S'\x00\x00\xc0?'
p177
tp178
Rp179
ag32
(g36
S'\x00\x00\xc0?'
p180
tp181
Rp182
ag32
(g36
S'\x00\x00\xc0?'
p183
tp184
Rp185
ag32
(g36
S'\x00\x00\xc0?'
p186
tp187
Rp188
ag32
(g36
S'\x00\x00\xc0?'
p189
tp190
Rp191
ag32
(g36
S'\x00\x00\xc0?'
p192
tp193
Rp194
ag32
(g36
S'\x00\x00\xc0?'
p195
tp196
Rp197
ag32
(g36
S'\x00\x00\xc0?'
p198
tp199
Rp200
ag32
(g36
S'\x00\x00\xc0?'
p201
tp202
Rp203
ag32
(g36
S'\x00\x00\xc0?'
p204
tp205
Rp206
ag32
(g36
S'\x00\x00\xc0?'
p207
tp208
Rp209
ag32
(g36
S'\x00\x00\xc0?'
p210
tp211
Rp212
ag32
(g36
S'\x00\x00\xc0?'
p213
tp214
Rp215
ag32
(g36
S'\x00\x00\xc0?'
p216
tp217
Rp218
ag32
(g36
S'\x00\x00\xc0?'
p219
tp220
Rp221
ag32
(g36
S'\x00\x00\xc0?'
p222
tp223
Rp224
ag32
(g36
S'\x00\x00\xc0?'
p225
tp226
Rp227
ag32
(g36
S'\x00\x00\xc0?'
p228
tp229
Rp230
ag32
(g36
S'\x00\x00\xc0?'
p231
tp232
Rp233
ag32
(g36
S'\x00\x00\xc0?'
p234
tp235
Rp236
ag32
(g36
S'\x00\x00\xc0?'
p237
tp238
Rp239
ag32
(g36
S'\x00\x00\xc0?'
p240
tp241
Rp242
ag32
(g36
S'\x00\x00\xc0?'
p243
tp244
Rp245
ag32
(g36
S'\x00\x00\xc0?'
p246
tp247
Rp248
ag32
(g36
S'\x00\x00\xc0?'
p249
tp250
Rp251
ag32
(g36
S'\x00\x00\xc0?'
p252
tp253
Rp254
ag32
(g36
S'\x00\x00\xc0?'
p255
tp256
Rp257
ag32
(g36
S'\x00\x00\xc0?'
p258
tp259
Rp260
ag32
(g36
S'\x00\x00\xc0?'
p261
tp262
Rp263
ag32
(g36
S'\x00\x00\xc0?'
p264
tp265
Rp266
ag32
(g36
S'\x00\x00\xc0?'
p267
tp268
Rp269
ag32
(g36
S'\x00\x00\xc0?'
p270
tp271
Rp272
ag32
(g36
S'\x00\x00\xc0?'
p273
tp274
Rp275
ag32
(g36
S'\x00\x00\xc0?'
p276
tp277
Rp278
ag32
(g36
S'\x00\x00\xc0?'
p279
tp280
Rp281
ag32
(g36
S'\x00\x00\xc0?'
p282
tp283
Rp284
ag32
(g36
S'\x00\x00\xc0?'
p285
tp286
Rp287
ag32
(g36
S'\x00\x00\xc0?'
p288
tp289
Rp290
ag32
(g36
S'\x00\x00\xc0?'
p291
tp292
Rp293
ag32
(g36
S'\x00\x00\xc0?'
p294
tp295
Rp296
ag32
(g36
S'\x00\x00\xc0?'
p297
tp298
Rp299
ag32
(g36
S'\x00\x00\xc0?'
p300
tp301
Rp302
ag32
(g36
S'\x00\x00\xc0?'
p303
tp304
Rp305
ag32
(g36
S'\x00\x00\xc0?'
p306
tp307
Rp308
ag32
(g36
S'\x00\x00\xc0?'
p309
tp310
Rp311
ag32
(g36
S'\x00\x00\xc0?'
p312
tp313
Rp314
ag32
(g36
S'\x00\x00\xc0?'
p315
tp316
Rp317
ag32
(g36
S'\x00\x00\xc0?'
p318
tp319
Rp320
ag32
(g36
S'\x00\x00\xc0?'
p321
tp322
Rp323
ag32
(g36
S'\x00\x00\xc0?'
p324
tp325
Rp326
ag32
(g36
S'\x00\x00\xc0?'
p327
tp328
Rp329
ag32
(g36
S'\x00\x00\xc0?'
p330
tp331
Rp332
ag32
(g36
S'\x00\x00\xc0?'
p333
tp334
Rp335
ag32
(g36
S'\x00\x00\xc0?'
p336
tp337
Rp338
ag32
(g36
S'\x00\x00\xc0?'
p339
tp340
Rp341
ag32
(g36
S'\x00\x00\xc0?'
p342
tp343
Rp344
ag32
(g36
S'\x00\x00\xc0?'
p345
tp346
Rp347
ag32
(g36
S'\x00\x00\xc0?'
p348
tp349
Rp350
ag32
(g36
S'\x00\x00\xc0?'
p351
tp352
Rp353
ag32
(g36
S'\x00\x00\xc0?'
p354
tp355
Rp356
ag32
(g36
S'\x00\x00\xc0?'
p357
tp358
Rp359
ag32
(g36
S'\x00\x00\xc0?'
p360
tp361
Rp362
ag32
(g36
S'\x00\x00\xc0?'
p363
tp364
Rp365
ag32
(g36
S'\x00\x00\xc0?'
p366
tp367
Rp368
ag32
(g36
S'\x00\x00\xc0?'
p369
tp370
Rp371
ag32
(g36
S'\x00\x00\xc0?'
p372
tp373
Rp374
ag32
(g36
S'\x00\x00\xc0?'
p375
tp376
Rp377
ag32
(g36
S'\x00\x00\xc0?'
p378
tp379
Rp380
ag32
(g36
S'\x00\x00\xc0?'
p381
tp382
Rp383
ag32
(g36
S'\x00\x00\xc0?'
p384
tp385
Rp386
ag32
(g36
S'\x00\x00\xc0?'
p387
tp388
Rp389
ag32
(g36
S'\x00\x00\xc0?'
p390
tp391
Rp392
ag32
(g36
S'\x00\x00\xc0?'
p393
tp394
Rp395
ag32
(g36
S'\x00\x00\xc0?'
p396
tp397
Rp398
ag32
(g36
S'\x00\x00\xc0?'
p399
tp400
Rp401
ag32
(g36
S'\x00\x00\xc0?'
p402
tp403
Rp404
ag32
(g36
S'\x00\x00\xc0?'
p405
tp406
Rp407
ag32
(g36
S'\x00\x00\xc0?'
p408
tp409
Rp410
ag32
(g36
S'\x00\x00\xc0?'
p411
tp412
Rp413
ag32
(g36
S'\x00\x00\xc0?'
p414
tp415
Rp416
ag32
(g36
S'\x00\x00\xc0?'
p417
tp418
Rp419
ag32
(g36
S'\x00\x00\xc0?'
p420
tp421
Rp422
ag32
(g36
S'\x00\x00\xc0?'
p423
tp424
Rp425
ag32
(g36
S'\x00\x00\xc0?'
p426
tp427
Rp428
ag32
(g36
S'\x00\x00\xc0?'
p429
tp430
Rp431
ag32
(g36
S'\x00\x00\xc0?'
p432
tp433
Rp434
ag32
(g36
S'\x00\x00\xc0?'
p435
tp436
Rp437
ag32
(g36
S'\x00\x00\xc0?'
p438
tp439
Rp440
ag32
(g36
S'\x00\x00\xc0?'
p441
tp442
Rp443
ag32
(g36
S'\x00\x00\xc0?'
p444
tp445
Rp446
ag32
(g36
S'\x00\x00\xc0?'
p447
tp448
Rp449
ag32
(g36
S'\x00\x00\xc0?'
p450
tp451
Rp452
ag32
(g36
S'\x00\x00\xc0?'
p453
tp454
Rp455
ag32
(g36
S'\x00\x00\xc0?'
p456
tp457
Rp458
ag32
(g36
S'\x00\x00\xc0?'
p459
tp460
Rp461
ag32
(g36
S'\x00\x00\xc0?'
p462
tp463
Rp464
ag32
(g36
S'\x00\x00\xc0?'
p465
tp466
Rp467
ag32
(g36
S'\x00\x00\xc0?'
p468
tp469
Rp470
ag32
(g36
S'\x00\x00\xc0?'
p471
tp472
Rp473
ag32
(g36
S'\x00\x00\xc0?'
p474
tp475
Rp476
ag32
(g36
S'\x00\x00\xc0?'
p477
tp478
Rp479
ag32
(g36
S'\x00\x00\xc0?'
p480
tp481
Rp482
ag32
(g36
S'\x00\x00\xc0?'
p483
tp484
Rp485
ag32
(g36
S'\x00\x00\xc0?'
p486
tp487
Rp488
ag32
(g36
S'\x00\x00\xc0?'
p489
tp490
Rp491
ag32
(g36
S'\x00\x00\xc0?'
p492
tp493
Rp494
ag32
(g36
S'\x00\x00\xc0?'
p495
tp496
Rp497
ag32
(g36
S'\x00\x00\xc0?'
p498
tp499
Rp500
ag32
(g36
S'\x00\x00\xc0?'
p501
tp502
Rp503
ag32
(g36
S'\x00\x00\xc0?'
p504
tp505
Rp506
ag32
(g36
S'\x00\x00\xc0?'
p507
tp508
Rp509
ag32
(g36
S'\x00\x00\xc0?'
p510
tp511
Rp512
ag32
(g36
S'\x00\x00\xc0?'
p513
tp514
Rp515
ag32
(g36
S'\x00\x00\xc0?'
p516
tp517
Rp518
ag32
(g36
S'\x00\x00\xc0?'
p519
tp520
Rp521
ag32
(g36
S'\x00\x00\xc0?'
p522
tp523
Rp524
ag32
(g36
S'\x00\x00\xc0?'
p525
tp526
Rp527
ag32
(g36
S'\x00\x00\xc0?'
p528
tp529
Rp530
ag32
(g36
S'\x00\x00\xc0?'
p531
tp532
Rp533
ag32
(g36
S'\x00\x00\xc0?'
p534
tp535
Rp536
ag32
(g36
S'\x00\x00\xc0?'
p537
tp538
Rp539
ag32
(g36
S'\x00\x00\xc0?'
p540
tp541
Rp542
ag32
(g36
S'\x00\x00\xc0?'
p543
tp544
Rp545
ag32
(g36
S'\x00\x00\xc0?'
p546
tp547
Rp548
ag32
(g36
S'\x00\x00\xc0?'
p549
tp550
Rp551
ag32
(g36
S'\x00\x00\xc0?'
p552
tp553
Rp554
ag32
(g36
S'\x00\x00\xc0?'
p555
tp556
Rp557
ag32
(g36
S'\x00\x00\xc0?'
p558
tp559
Rp560
ag32
(g36
S'\x00\x00\xc0?'
p561
tp562
Rp563
ag32
(g36
S'\x00\x00\xc0?'
p564
tp565
Rp566
ag32
(g36
S'\x00\x00\xc0?'
p567
tp568
Rp569
ag32
(g36
S'\x00\x00\xc0?'
p570
tp571
Rp572
ag32
(g36
S'\x00\x00\xc0?'
p573
tp574
Rp575
ag32
(g36
S'\x00\x00\xc0?'
p576
tp577
Rp578
ag32
(g36
S'\x00\x00\xc0?'
p579
tp580
Rp581
ag32
(g36
S'\x00\x00\xc0?'
p582
tp583
Rp584
ag32
(g36
S'\x00\x00\xc0?'
p585
tp586
Rp587
ag32
(g36
S'\x00\x00\xc0?'
p588
tp589
Rp590
ag32
(g36
S'\x00\x00\xc0?'
p591
tp592
Rp593
ag32
(g36
S'\x00\x00\xc0?'
p594
tp595
Rp596
ag32
(g36
S'\x00\x00\xc0?'
p597
tp598
Rp599
ag32
(g36
S'\x00\x00\xc0?'
p600
tp601
Rp602
ag32
(g36
S'\x00\x00\xc0?'
p603
tp604
Rp605
ag32
(g36
S'\x00\x00\xc0?'
p606
tp607
Rp608
ag32
(g36
S'\x00\x00\xc0?'
p609
tp610
Rp611
ag32
(g36
S'\x00\x00\xc0?'
p612
tp613
Rp614
ag32
(g36
S'\x00\x00\xc0?'
p615
tp616
Rp617
ag32
(g36
S'\x00\x00\xc0?'
p618
tp619
Rp620
ag32
(g36
S'\x00\x00\xc0?'
p621
tp622
Rp623
ag32
(g36
S'\x00\x00\xc0?'
p624
tp625
Rp626
ag32
(g36
S'\x00\x00\xc0?'
p627
tp628
Rp629
ag32
(g36
S'\x00\x00\xc0?'
p630
tp631
Rp632
ag32
(g36
S'\x00\x00\xc0?'
p633
tp634
Rp635
ag32
(g36
S'\x00\x00\xc0?'
p636
tp637
Rp638
ag32
(g36
S'\x00\x00\xc0?'
p639
tp640
Rp641
ag32
(g36
S'\x00\x00\xc0?'
p642
tp643
Rp644
ag32
(g36
S'\x00\x00\xc0?'
p645
tp646
Rp647
ag32
(g36
S'\x00\x00\xc0?'
p648
tp649
Rp650
ag32
(g36
S'\x00\x00\xc0?'
p651
tp652
Rp653
ag32
(g36
S'\x00\x00\xc0?'
p654
tp655
Rp656
ag32
(g36
S'\x00\x00\xc0?'
p657
tp658
Rp659
ag32
(g36
S'\x00\x00\xc0?'
p660
tp661
Rp662
ag32
(g36
S'\x00\x00\xc0?'
p663
tp664
Rp665
ag32
(g36
S'\x00\x00\xc0?'
p666
tp667
Rp668
ag32
(g36
S'\x00\x00\xc0?'
p669
tp670
Rp671
ag32
(g36
S'\x00\x00\xc0?'
p672
tp673
Rp674
ag32
(g36
S'\x00\x00\xc0?'
p675
tp676
Rp677
ag32
(g36
S'\x00\x00\xc0?'
p678
tp679
Rp680
ag32
(g36
S'\x00\x00\xc0?'
p681
tp682
Rp683
ag32
(g36
S'\x00\x00\xc0?'
p684
tp685
Rp686
ag32
(g36
S'\x00\x00\xc0?'
p687
tp688
Rp689
ag32
(g36
S'\x00\x00\xc0?'
p690
tp691
Rp692
ag32
(g36
S'\x00\x00\xc0?'
p693
tp694
Rp695
ag32
(g36
S'\x00\x00\xc0?'
p696
tp697
Rp698
ag32
(g36
S'\x00\x00\xc0?'
p699
tp700
Rp701
ag32
(g36
S'\x00\x00\xc0?'
p702
tp703
Rp704
ag32
(g36
S'\x00\x00\xc0?'
p705
tp706
Rp707
ag32
(g36
S'\x00\x00\xc0?'
p708
tp709
Rp710
ag32
(g36
S'\x00\x00\xc0?'
p711
tp712
Rp713
ag32
(g36
S'\x00\x00\xc0?'
p714
tp715
Rp716
ag32
(g36
S'\x00\x00\xc0?'
p717
tp718
Rp719
ag32
(g36
S'\x00\x00\xc0?'
p720
tp721
Rp722
ag32
(g36
S'\x00\x00\xc0?'
p723
tp724
Rp725
ag32
(g36
S'\x00\x00\xc0?'
p726
tp727
Rp728
ag32
(g36
S'\x00\x00\xc0?'
p729
tp730
Rp731
ag32
(g36
S'\x00\x00\xc0?'
p732
tp733
Rp734
ag32
(g36
S'\x00\x00\xc0?'
p735
tp736
Rp737
ag32
(g36
S'\x00\x00\xc0?'
p738
tp739
Rp740
ag32
(g36
S'\x00\x00\xc0?'
p741
tp742
Rp743
ag32
(g36
S'\x00\x00\xc0?'
p744
tp745
Rp746
ag32
(g36
S'\x00\x00\xc0?'
p747
tp748
Rp749
ag32
(g36
S'\x00\x00\xc0?'
p750
tp751
Rp752
ag32
(g36
S'\x00\x00\xc0?'
p753
tp754
Rp755
ag32
(g36
S'\x00\x00\xc0?'
p756
tp757
Rp758
ag32
(g36
S'\x00\x00\xc0?'
p759
tp760
Rp761
ag32
(g36
S'\x00\x00\xc0?'
p762
tp763
Rp764
ag32
(g36
S'\x00\x00\xc0?'
p765
tp766
Rp767
ag32
(g36
S'\x00\x00\xc0?'
p768
tp769
Rp770
ag32
(g36
S'\x00\x00\xc0?'
p771
tp772
Rp773
ag32
(g36
S'\x00\x00\xc0?'
p774
tp775
Rp776
ag32
(g36
S'\x00\x00\xc0?'
p777
tp778
Rp779
ag32
(g36
S'\x00\x00\xc0?'
p780
tp781
Rp782
ag32
(g36
S'\x00\x00\xc0?'
p783
tp784
Rp785
ag32
(g36
S'\x00\x00\xc0?'
p786
tp787
Rp788
ag32
(g36
S'\x00\x00\xc0?'
p789
tp790
Rp791
ag32
(g36
S'\x00\x00\xc0?'
p792
tp793
Rp794
ag32
(g36
S'\x00\x00\xc0?'
p795
tp796
Rp797
ag32
(g36
S'\x00\x00\xc0?'
p798
tp799
Rp800
ag32
(g36
S'\x00\x00\xc0?'
p801
tp802
Rp803
ag32
(g36
S'\x00\x00\xc0?'
p804
tp805
Rp806
ag32
(g36
S'\x00\x00\xc0?'
p807
tp808
Rp809
ag32
(g36
S'\x00\x00\xc0?'
p810
tp811
Rp812
ag32
(g36
S'\x00\x00\xc0?'
p813
tp814
Rp815
ag32
(g36
S'\x00\x00\xc0?'
p816
tp817
Rp818
ag32
(g36
S'\x00\x00\xc0?'
p819
tp820
Rp821
ag32
(g36
S'\x00\x00\xc0?'
p822
tp823
Rp824
ag32
(g36
S'\x00\x00\xc0?'
p825
tp826
Rp827
ag32
(g36
S'\x00\x00\xc0?'
p828
tp829
Rp830
ag32
(g36
S'\x00\x00\xc0?'
p831
tp832
Rp833
ag32
(g36
S'\x00\x00\xc0?'
p834
tp835
Rp836
ag32
(g36
S'\x00\x00\xc0?'
p837
tp838
Rp839
ag32
(g36
S'\x00\x00\xc0?'
p840
tp841
Rp842
ag32
(g36
S'\x00\x00\xc0?'
p843
tp844
Rp845
ag32
(g36
S'\x00\x00\xc0?'
p846
tp847
Rp848
ag32
(g36
S'\x00\x00\xc0?'
p849
tp850
Rp851
ag32
(g36
S'\x00\x00\xc0?'
p852
tp853
Rp854
ag32
(g36
S'\x00\x00\xc0?'
p855
tp856
Rp857
ag32
(g36
S'\x00\x00\xc0?'
p858
tp859
Rp860
ag32
(g36
S'\x00\x00\xc0?'
p861
tp862
Rp863
ag32
(g36
S'\x00\x00\xc0?'
p864
tp865
Rp866
ag32
(g36
S'\x00\x00\xc0?'
p867
tp868
Rp869
ag32
(g36
S'\x00\x00\xc0?'
p870
tp871
Rp872
ag32
(g36
S'\x00\x00\xc0?'
p873
tp874
Rp875
ag32
(g36
S'\x00\x00\xc0?'
p876
tp877
Rp878
ag32
(g36
S'\x00\x00\xc0?'
p879
tp880
Rp881
aa(lp882
g32
(g36
S'\x00\x00\x80?'
p883
tp884
Rp885
ag32
(g36
S'\x00\x00\x80?'
p886
tp887
Rp888
ag32
(g36
S'\x00\x00\x80?'
p889
tp890
Rp891
ag32
(g36
S'\x00\x00\x80?'
p892
tp893
Rp894
ag32
(g36
S'\x00\x00\x80?'
p895
tp896
Rp897
ag32
(g36
S'\x00\x00\x80?'
p898
tp899
Rp900
ag32
(g36
S'\x00\x00\x80?'
p901
tp902
Rp903
ag32
(g36
S'\x00\x00\x80?'
p904
tp905
Rp906
ag32
(g36
S'\x00\x00\x80?'
p907
tp908
Rp909
ag32
(g36
S'\x00\x00\x80?'
p910
tp911
Rp912
ag32
(g36
S'\x00\x00\x80?'
p913
tp914
Rp915
ag32
(g36
S'\x00\x00\x80?'
p916
tp917
Rp918
ag32
(g36
S'\x00\x00\x80?'
p919
tp920
Rp921
ag32
(g36
S'\x00\x00\x80?'
p922
tp923
Rp924
ag32
(g36
S'\x00\x00\x80?'
p925
tp926
Rp927
ag32
(g36
S'\x00\x00\x80?'
p928
tp929
Rp930
ag32
(g36
S'\x00\x00\x80?'
p931
tp932
Rp933
ag32
(g36
S'\x00\x00\x80?'
p934
tp935
Rp936
ag32
(g36
S'\x00\x00\x80?'
p937
tp938
Rp939
ag32
(g36
S'\x00\x00\x80?'
p940
tp941
Rp942
ag32
(g36
S'\x00\x00\x80?'
p943
tp944
Rp945
ag32
(g36
S'\x00\x00\x80?'
p946
tp947
Rp948
ag32
(g36
S'\x00\x00\x80?'
p949
tp950
Rp951
ag32
(g36
S'\x00\x00\x80?'
p952
tp953
Rp954
ag32
(g36
S'\x00\x00\x80?'
p955
tp956
Rp957
ag32
(g36
S'\x00\x00\x80?'
p958
tp959
Rp960
ag32
(g36
S'\x00\x00\x80?'
p961
tp962
Rp963
ag32
(g36
S'\x00\x00\x80?'
p964
tp965
Rp966
ag32
(g36
S'\x00\x00\x80?'
p967
tp968
Rp969
ag32
(g36
S'\x00\x00\x80?'
p970
tp971
Rp972
ag32
(g36
S'\x00\x00\x80?'
p973
tp974
Rp975
ag32
(g36
S'\x00\x00\x80?'
p976
tp977
Rp978
ag32
(g36
S'\x00\x00\x80?'
p979
tp980
Rp981
ag32
(g36
S'\x00\x00\x80?'
p982
tp983
Rp984
ag32
(g36
S'\x00\x00\x80?'
p985
tp986
Rp987
ag32
(g36
S'\x00\x00\x80?'
p988
tp989
Rp990
ag32
(g36
S'\x00\x00\x80?'
p991
tp992
Rp993
ag32
(g36
S'\x00\x00\x80?'
p994
tp995
Rp996
ag32
(g36
S'\x00\x00\x80?'
p997
tp998
Rp999
ag32
(g36
S'\x00\x00\x80?'
p1000
tp1001
Rp1002
ag32
(g36
S'\x00\x00\x80?'
p1003
tp1004
Rp1005
ag32
(g36
S'\x00\x00\x80?'
p1006
tp1007
Rp1008
ag32
(g36
S'\x00\x00\x80?'
p1009
tp1010
Rp1011
ag32
(g36
S'\x00\x00\x80?'
p1012
tp1013
Rp1014
ag32
(g36
S'\x00\x00\x80?'
p1015
tp1016
Rp1017
ag32
(g36
S'\x00\x00\x80?'
p1018
tp1019
Rp1020
ag32
(g36
S'\x00\x00\x80?'
p1021
tp1022
Rp1023
ag32
(g36
S'\x00\x00\x80?'
p1024
tp1025
Rp1026
ag32
(g36
S'\x00\x00\x80?'
p1027
tp1028
Rp1029
ag32
(g36
S'\x00\x00\x80?'
p1030
tp1031
Rp1032
ag32
(g36
S'\x00\x00\x80?'
p1033
tp1034
Rp1035
ag32
(g36
S'\x00\x00\x80?'
p1036
tp1037
Rp1038
ag32
(g36
S'\x00\x00\x80?'
p1039
tp1040
Rp1041
ag32
(g36
S'\x00\x00\x80?'
p1042
tp1043
Rp1044
ag32
(g36
S'\x00\x00\x80?'
p1045
tp1046
Rp1047
ag32
(g36
S'\x00\x00\x80?'
p1048
tp1049
Rp1050
ag32
(g36
S'\x00\x00\x80?'
p1051
tp1052
Rp1053
ag32
(g36
S'\x00\x00\x80?'
p1054
tp1055
Rp1056
ag32
(g36
S'\x00\x00\x80?'
p1057
tp1058
Rp1059
ag32
(g36
S'\x00\x00\x80?'
p1060
tp1061
Rp1062
ag32
(g36
S'\x00\x00\x80?'
p1063
tp1064
Rp1065
ag32
(g36
S'\x00\x00\x80?'
p1066
tp1067
Rp1068
ag32
(g36
S'\x00\x00\x80?'
p1069
tp1070
Rp1071
ag32
(g36
S'\x00\x00\x80?'
p1072
tp1073
Rp1074
ag32
(g36
S'\x00\x00\x80?'
p1075
tp1076
Rp1077
ag32
(g36
S'\x00\x00\x80?'
p1078
tp1079
Rp1080
ag32
(g36
S'\x00\x00\x80?'
p1081
tp1082
Rp1083
ag32
(g36
S'\x00\x00\x80?'
p1084
tp1085
Rp1086
ag32
(g36
S'\x00\x00\x80?'
p1087
tp1088
Rp1089
ag32
(g36
S'\x00\x00\x80?'
p1090
tp1091
Rp1092
ag32
(g36
S'\x00\x00\x80?'
p1093
tp1094
Rp1095
ag32
(g36
S'\x00\x00\x80?'
p1096
tp1097
Rp1098
ag32
(g36
S'\x00\x00\x80?'
p1099
tp1100
Rp1101
ag32
(g36
S'\x00\x00\x80?'
p1102
tp1103
Rp1104
ag32
(g36
S'\x00\x00\x80?'
p1105
tp1106
Rp1107
ag32
(g36
S'\x00\x00\x80?'
p1108
tp1109
Rp1110
ag32
(g36
S'\x00\x00\x80?'
p1111
tp1112
Rp1113
ag32
(g36
S'\x00\x00\x80?'
p1114
tp1115
Rp1116
ag32
(g36
S'\x00\x00\x80?'
p1117
tp1118
Rp1119
ag32
(g36
S'\x00\x00\x80?'
p1120
tp1121
Rp1122
ag32
(g36
S'\x00\x00\x80?'
p1123
tp1124
Rp1125
ag32
(g36
S'\x00\x00\x80?'
p1126
tp1127
Rp1128
ag32
(g36
S'\x00\x00\x80?'
p1129
tp1130
Rp1131
ag32
(g36
S'\x00\x00\x80?'
p1132
tp1133
Rp1134
ag32
(g36
S'\x00\x00\x80?'
p1135
tp1136
Rp1137
ag32
(g36
S'\x00\x00\x80?'
p1138
tp1139
Rp1140
ag32
(g36
S'\x00\x00\x80?'
p1141
tp1142
Rp1143
ag32
(g36
S'\x00\x00\x80?'
p1144
tp1145
Rp1146
ag32
(g36
S'\x00\x00\x80?'
p1147
tp1148
Rp1149
ag32
(g36
S'\x00\x00\x80?'
p1150
tp1151
Rp1152
ag32
(g36
S'\x00\x00\x80?'
p1153
tp1154
Rp1155
ag32
(g36
S'\x00\x00\x80?'
p1156
tp1157
Rp1158
ag32
(g36
S'\x00\x00\x80?'
p1159
tp1160
Rp1161
ag32
(g36
S'\x00\x00\x80?'
p1162
tp1163
Rp1164
ag32
(g36
S'\x00\x00\x80?'
p1165
tp1166
Rp1167
ag32
(g36
S'\x00\x00\x80?'
p1168
tp1169
Rp1170
ag32
(g36
S'\x00\x00\x80?'
p1171
tp1172
Rp1173
ag32
(g36
S'\x00\x00\x80?'
p1174
tp1175
Rp1176
ag32
(g36
S'\x00\x00\x80?'
p1177
tp1178
Rp1179
ag32
(g36
S'\x00\x00\x80?'
p1180
tp1181
Rp1182
ag32
(g36
S'\x00\x00\x80?'
p1183
tp1184
Rp1185
ag32
(g36
S'\x00\x00\x80?'
p1186
tp1187
Rp1188
ag32
(g36
S'\x00\x00\x80?'
p1189
tp1190
Rp1191
ag32
(g36
S'\x00\x00\x80?'
p1192
tp1193
Rp1194
ag32
(g36
S'\x00\x00\x80?'
p1195
tp1196
Rp1197
ag32
(g36
S'\x00\x00\x80?'
p1198
tp1199
Rp1200
ag32
(g36
S'\x00\x00\x80?'
p1201
tp1202
Rp1203
ag32
(g36
S'\x00\x00\x80?'
p1204
tp1205
Rp1206
ag32
(g36
S'\x00\x00\x80?'
p1207
tp1208
Rp1209
ag32
(g36
S'\x00\x00\x80?'
p1210
tp1211
Rp1212
ag32
(g36
S'\x00\x00\x80?'
p1213
tp1214
Rp1215
ag32
(g36
S'\x00\x00\x80?'
p1216
tp1217
Rp1218
ag32
(g36
S'\x00\x00\x80?'
p1219
tp1220
Rp1221
ag32
(g36
S'\x00\x00\x80?'
p1222
tp1223
Rp1224
ag32
(g36
S'\x00\x00\x80?'
p1225
tp1226
Rp1227
ag32
(g36
S'\x00\x00\x80?'
p1228
tp1229
Rp1230
ag32
(g36
S'\x00\x00\x80?'
p1231
tp1232
Rp1233
ag32
(g36
S'\x00\x00\x80?'
p1234
tp1235
Rp1236
ag32
(g36
S'\x00\x00\x80?'
p1237
tp1238
Rp1239
ag32
(g36
S'\x00\x00\x80?'
p1240
tp1241
Rp1242
ag32
(g36
S'\x00\x00\x80?'
p1243
tp1244
Rp1245
ag32
(g36
S'\x00\x00\x80?'
p1246
tp1247
Rp1248
ag32
(g36
S'\x00\x00\x80?'
p1249
tp1250
Rp1251
ag32
(g36
S'\x00\x00\x80?'
p1252
tp1253
Rp1254
ag32
(g36
S'\x00\x00\x80?'
p1255
tp1256
Rp1257
ag32
(g36
S'\x00\x00\x80?'
p1258
tp1259
Rp1260
ag32
(g36
S'\x00\x00\x80?'
p1261
tp1262
Rp1263
ag32
(g36
S'\x00\x00\x80?'
p1264
tp1265
Rp1266
ag32
(g36
S'\x00\x00\x80?'
p1267
tp1268
Rp1269
ag32
(g36
S'\x00\x00\x80?'
p1270
tp1271
Rp1272
ag32
(g36
S'\x00\x00\x80?'
p1273
tp1274
Rp1275
ag32
(g36
S'\x00\x00\x80?'
p1276
tp1277
Rp1278
ag32
(g36
S'\x00\x00\x80?'
p1279
tp1280
Rp1281
ag32
(g36
S'\x00\x00\x80?'
p1282
tp1283
Rp1284
ag32
(g36
S'\x00\x00\x80?'
p1285
tp1286
Rp1287
ag32
(g36
S'\x00\x00\x80?'
p1288
tp1289
Rp1290
ag32
(g36
S'\x00\x00\x80?'
p1291
tp1292
Rp1293
ag32
(g36
S'\x00\x00\x80?'
p1294
tp1295
Rp1296
ag32
(g36
S'\x00\x00\x80?'
p1297
tp1298
Rp1299
ag32
(g36
S'\x00\x00\x80?'
p1300
tp1301
Rp1302
ag32
(g36
S'\x00\x00\x80?'
p1303
tp1304
Rp1305
ag32
(g36
S'\x00\x00\x80?'
p1306
tp1307
Rp1308
ag32
(g36
S'\x00\x00\x80?'
p1309
tp1310
Rp1311
ag32
(g36
S'\x00\x00\x80?'
p1312
tp1313
Rp1314
ag32
(g36
S'\x00\x00\x80?'
p1315
tp1316
Rp1317
ag32
(g36
S'\x00\x00\x80?'
p1318
tp1319
Rp1320
ag32
(g36
S'\x00\x00\x80?'
p1321
tp1322
Rp1323
ag32
(g36
S'\x00\x00\x80?'
p1324
tp1325
Rp1326
ag32
(g36
S'\x00\x00\x80?'
p1327
tp1328
Rp1329
ag32
(g36
S'\x00\x00\x80?'
p1330
tp1331
Rp1332
ag32
(g36
S'\x00\x00\x80?'
p1333
tp1334
Rp1335
ag32
(g36
S'\x00\x00\x80?'
p1336
tp1337
Rp1338
ag32
(g36
S'\x00\x00\x80?'
p1339
tp1340
Rp1341
ag32
(g36
S'\x00\x00\x80?'
p1342
tp1343
Rp1344
ag32
(g36
S'\x00\x00\x80?'
p1345
tp1346
Rp1347
ag32
(g36
S'\x00\x00\x80?'
p1348
tp1349
Rp1350
ag32
(g36
S'\x00\x00\x80?'
p1351
tp1352
Rp1353
ag32
(g36
S'\x00\x00\x80?'
p1354
tp1355
Rp1356
ag32
(g36
S'\x00\x00\x80?'
p1357
tp1358
Rp1359
ag32
(g36
S'\x00\x00\x80?'
p1360
tp1361
Rp1362
ag32
(g36
S'\x00\x00\x80?'
p1363
tp1364
Rp1365
ag32
(g36
S'\x00\x00\x80?'
p1366
tp1367
Rp1368
ag32
(g36
S'\x00\x00\x80?'
p1369
tp1370
Rp1371
ag32
(g36
S'\x00\x00\x80?'
p1372
tp1373
Rp1374
ag32
(g36
S'\x00\x00\x80?'
p1375
tp1376
Rp1377
ag32
(g36
S'\x00\x00\x80?'
p1378
tp1379
Rp1380
ag32
(g36
S'\x00\x00\x80?'
p1381
tp1382
Rp1383
ag32
(g36
S'\x00\x00\x80?'
p1384
tp1385
Rp1386
ag32
(g36
S'\x00\x00\x80?'
p1387
tp1388
Rp1389
ag32
(g36
S'\x00\x00\x80?'
p1390
tp1391
Rp1392
ag32
(g36
S'\x00\x00\x80?'
p1393
tp1394
Rp1395
ag32
(g36
S'\x00\x00\x80?'
p1396
tp1397
Rp1398
ag32
(g36
S'\x00\x00\x80?'
p1399
tp1400
Rp1401
ag32
(g36
S'\x00\x00\x80?'
p1402
tp1403
Rp1404
ag32
(g36
S'\x00\x00\x80?'
p1405
tp1406
Rp1407
ag32
(g36
S'\x00\x00\x80?'
p1408
tp1409
Rp1410
ag32
(g36
S'\x00\x00\x80?'
p1411
tp1412
Rp1413
ag32
(g36
S'\x00\x00\x80?'
p1414
tp1415
Rp1416
ag32
(g36
S'\x00\x00\x80?'
p1417
tp1418
Rp1419
ag32
(g36
S'\x00\x00\x80?'
p1420
tp1421
Rp1422
ag32
(g36
S'\x00\x00\x80?'
p1423
tp1424
Rp1425
ag32
(g36
S'\x00\x00\x80?'
p1426
tp1427
Rp1428
ag32
(g36
S'\x00\x00\x80?'
p1429
tp1430
Rp1431
ag32
(g36
S'\x00\x00\x80?'
p1432
tp1433
Rp1434
ag32
(g36
S'\x00\x00\x80?'
p1435
tp1436
Rp1437
ag32
(g36
S'\x00\x00\x80?'
p1438
tp1439
Rp1440
ag32
(g36
S'\x00\x00\x80?'
p1441
tp1442
Rp1443
ag32
(g36
S'\x00\x00\x80?'
p1444
tp1445
Rp1446
ag32
(g36
S'\x00\x00\x80?'
p1447
tp1448
Rp1449
ag32
(g36
S'\x00\x00\x80?'
p1450
tp1451
Rp1452
ag32
(g36
S'\x00\x00\x80?'
p1453
tp1454
Rp1455
ag32
(g36
S'\x00\x00\x80?'
p1456
tp1457
Rp1458
ag32
(g36
S'\x00\x00\x80?'
p1459
tp1460
Rp1461
ag32
(g36
S'\x00\x00\x80?'
p1462
tp1463
Rp1464
ag32
(g36
S'\x00\x00\x80?'
p1465
tp1466
Rp1467
ag32
(g36
S'\x00\x00\x80?'
p1468
tp1469
Rp1470
ag32
(g36
S'\x00\x00\x80?'
p1471
tp1472
Rp1473
ag32
(g36
S'\x00\x00\x80?'
p1474
tp1475
Rp1476
ag32
(g36
S'\x00\x00\x80?'
p1477
tp1478
Rp1479
ag32
(g36
S'\x00\x00\x80?'
p1480
tp1481
Rp1482
ag32
(g36
S'\x00\x00\x80?'
p1483
tp1484
Rp1485
ag32
(g36
S'\x00\x00\x80?'
p1486
tp1487
Rp1488
ag32
(g36
S'\x00\x00\x80?'
p1489
tp1490
Rp1491
ag32
(g36
S'\x00\x00\x80?'
p1492
tp1493
Rp1494
ag32
(g36
S'\x00\x00\x80?'
p1495
tp1496
Rp1497
ag32
(g36
S'\x00\x00\x80?'
p1498
tp1499
Rp1500
ag32
(g36
S'\x00\x00\x80?'
p1501
tp1502
Rp1503
ag32
(g36
S'\x00\x00\x80?'
p1504
tp1505
Rp1506
ag32
(g36
S'\x00\x00\x80?'
p1507
tp1508
Rp1509
ag32
(g36
S'\x00\x00\x80?'
p1510
tp1511
Rp1512
ag32
(g36
S'\x00\x00\x80?'
p1513
tp1514
Rp1515
ag32
(g36
S'\x00\x00\x80?'
p1516
tp1517
Rp1518
ag32
(g36
S'\x00\x00\x80?'
p1519
tp1520
Rp1521
ag32
(g36
S'\x00\x00\x80?'
p1522
tp1523
Rp1524
ag32
(g36
S'\x00\x00\x80?'
p1525
tp1526
Rp1527
ag32
(g36
S'\x00\x00\x80?'
p1528
tp1529
Rp1530
ag32
(g36
S'\x00\x00\x80?'
p1531
tp1532
Rp1533
ag32
(g36
S'\x00\x00\x80?'
p1534
tp1535
Rp1536
ag32
(g36
S'\x00\x00\x80?'
p1537
tp1538
Rp1539
ag32
(g36
S'\x00\x00\x80?'
p1540
tp1541
Rp1542
ag32
(g36
S'\x00\x00\x80?'
p1543
tp1544
Rp1545
ag32
(g36
S'\x00\x00\x80?'
p1546
tp1547
Rp1548
ag32
(g36
S'\x00\x00\x80?'
p1549
tp1550
Rp1551
ag32
(g36
S'\x00\x00\x80?'
p1552
tp1553
Rp1554
ag32
(g36
S'\x00\x00\x80?'
p1555
tp1556
Rp1557
ag32
(g36
S'\x00\x00\x80?'
p1558
tp1559
Rp1560
ag32
(g36
S'\x00\x00\x80?'
p1561
tp1562
Rp1563
ag32
(g36
S'\x00\x00\x80?'
p1564
tp1565
Rp1566
ag32
(g36
S'\x00\x00\x80?'
p1567
tp1568
Rp1569
ag32
(g36
S'\x00\x00\x80?'
p1570
tp1571
Rp1572
ag32
(g36
S'\x00\x00\x80?'
p1573
tp1574
Rp1575
ag32
(g36
S'\x00\x00\x80?'
p1576
tp1577
Rp1578
ag32
(g36
S'\x00\x00\x80?'
p1579
tp1580
Rp1581
ag32
(g36
S'\x00\x00\x80?'
p1582
tp1583
Rp1584
ag32
(g36
S'\x00\x00\x80?'
p1585
tp1586
Rp1587
ag32
(g36
S'\x00\x00\x80?'
p1588
tp1589
Rp1590
ag32
(g36
S'\x00\x00\x80?'
p1591
tp1592
Rp1593
ag32
(g36
S'\x00\x00\x80?'
p1594
tp1595
Rp1596
ag32
(g36
S'\x00\x00\x80?'
p1597
tp1598
Rp1599
ag32
(g36
S'\x00\x00\x80?'
p1600
tp1601
Rp1602
ag32
(g36
S'\x00\x00\x80?'
p1603
tp1604
Rp1605
ag32
(g36
S'\x00\x00\x80?'
p1606
tp1607
Rp1608
ag32
(g36
S'\x00\x00\x80?'
p1609
tp1610
Rp1611
ag32
(g36
S'\x00\x00\x80?'
p1612
tp1613
Rp1614
ag32
(g36
S'\x00\x00\x80?'
p1615
tp1616
Rp1617
ag32
(g36
S'\x00\x00\x80?'
p1618
tp1619
Rp1620
ag32
(g36
S'\x00\x00\x80?'
p1621
tp1622
Rp1623
ag32
(g36
S'\x00\x00\x80?'
p1624
tp1625
Rp1626
ag32
(g36
S'\x00\x00\x80?'
p1627
tp1628
Rp1629
ag32
(g36
S'\x00\x00\x80?'
p1630
tp1631
Rp1632
ag32
(g36
S'\x00\x00\x80?'
p1633
tp1634
Rp1635
ag32
(g36
S'\x00\x00\x80?'
p1636
tp1637
Rp1638
ag32
(g36
S'\x00\x00\x80?'
p1639
tp1640
Rp1641
ag32
(g36
S'\x00\x00\x80?'
p1642
tp1643
Rp1644
ag32
(g36
S'\x00\x00\x80?'
p1645
tp1646
Rp1647
ag32
(g36
S'\x00\x00\x80?'
p1648
tp1649
Rp1650
ag32
(g36
S'\x00\x00\x80?'
p1651
tp1652
Rp1653
ag32
(g36
S'\x00\x00\x80?'
p1654
tp1655
Rp1656
ag32
(g36
S'\x00\x00\x80?'
p1657
tp1658
Rp1659
ag32
(g36
S'\x00\x00\x80?'
p1660
tp1661
Rp1662
ag32
(g36
S'\x00\x00\x80?'
p1663
tp1664
Rp1665
ag32
(g36
S'\x00\x00\x80?'
p1666
tp1667
Rp1668
ag32
(g36
S'\x00\x00\x80?'
p1669
tp1670
Rp1671
ag32
(g36
S'\x00\x00\x80?'
p1672
tp1673
Rp1674
ag32
(g36
S'\x00\x00\x80?'
p1675
tp1676
Rp1677
ag32
(g36
S'\x00\x00\x80?'
p1678
tp1679
Rp1680
ag32
(g36
S'\x00\x00\x80?'
p1681
tp1682
Rp1683
ag32
(g36
S'\x00\x00\x80?'
p1684
tp1685
Rp1686
ag32
(g36
S'\x00\x00\x80?'
p1687
tp1688
Rp1689
ag32
(g36
S'\x00\x00\x80?'
p1690
tp1691
Rp1692
ag32
(g36
S'\x00\x00\x80?'
p1693
tp1694
Rp1695
ag32
(g36
S'\x00\x00\x80?'
p1696
tp1697
Rp1698
ag32
(g36
S'\x00\x00\x80?'
p1699
tp1700
Rp1701
ag32
(g36
S'\x00\x00\x80?'
p1702
tp1703
Rp1704
ag32
(g36
S'\x00\x00\x80?'
p1705
tp1706
Rp1707
ag32
(g36
S'\x00\x00\x80?'
p1708
tp1709
Rp1710
ag32
(g36
S'\x00\x00\x80?'
p1711
tp1712
Rp1713
ag32
(g36
S'\x00\x00\x80?'
p1714
tp1715
Rp1716
ag32
(g36
S'\x00\x00\x80?'
p1717
tp1718
Rp1719
ag32
(g36
S'\x00\x00\x80?'
p1720
tp1721
Rp1722
ag32
(g36
S'\x00\x00\x80?'
p1723
tp1724
Rp1725
aa(lp1726
g32
(g36
S'\x00\x00\x80?'
p1727
tp1728
Rp1729
ag32
(g36
S'\x00\x00\x80?'
p1730
tp1731
Rp1732
ag32
(g36
S'\x00\x00\x80?'
p1733
tp1734
Rp1735
ag32
(g36
S'\x00\x00\x80?'
p1736
tp1737
Rp1738
ag32
(g36
S'\x00\x00\x80?'
p1739
tp1740
Rp1741
ag32
(g36
S'\x00\x00\x80?'
p1742
tp1743
Rp1744
ag32
(g36
S'\x00\x00\x80?'
p1745
tp1746
Rp1747
ag32
(g36
S'\x00\x00\x80?'
p1748
tp1749
Rp1750
ag32
(g36
S'\x00\x00\x80?'
p1751
tp1752
Rp1753
ag32
(g36
S'\x00\x00\x80?'
p1754
tp1755
Rp1756
ag32
(g36
S'\x00\x00\x80?'
p1757
tp1758
Rp1759
ag32
(g36
S'\x00\x00\x80?'
p1760
tp1761
Rp1762
ag32
(g36
S'\x00\x00\x80?'
p1763
tp1764
Rp1765
ag32
(g36
S'\x00\x00\x80?'
p1766
tp1767
Rp1768
ag32
(g36
S'\x00\x00\x80?'
p1769
tp1770
Rp1771
ag32
(g36
S'\x00\x00\x80?'
p1772
tp1773
Rp1774
ag32
(g36
S'\x00\x00\x80?'
p1775
tp1776
Rp1777
ag32
(g36
S'\x00\x00\x80?'
p1778
tp1779
Rp1780
ag32
(g36
S'\x00\x00\x80?'
p1781
tp1782
Rp1783
ag32
(g36
S'\x00\x00\x80?'
p1784
tp1785
Rp1786
ag32
(g36
S'\x00\x00\x80?'
p1787
tp1788
Rp1789
ag32
(g36
S'\x00\x00\x80?'
p1790
tp1791
Rp1792
ag32
(g36
S'\x00\x00\x80?'
p1793
tp1794
Rp1795
ag32
(g36
S'\x00\x00\x80?'
p1796
tp1797
Rp1798
ag32
(g36
S'\x00\x00\x80?'
p1799
tp1800
Rp1801
ag32
(g36
S'\x00\x00\x80?'
p1802
tp1803
Rp1804
ag32
(g36
S'\x00\x00\x80?'
p1805
tp1806
Rp1807
ag32
(g36
S'\x00\x00\x80?'
p1808
tp1809
Rp1810
ag32
(g36
S'\x00\x00\x80?'
p1811
tp1812
Rp1813
ag32
(g36
S'\x00\x00\x80?'
p1814
tp1815
Rp1816
ag32
(g36
S'\x00\x00\x80?'
p1817
tp1818
Rp1819
ag32
(g36
S'\x00\x00\x80?'
p1820
tp1821
Rp1822
ag32
(g36
S'\x00\x00\x80?'
p1823
tp1824
Rp1825
ag32
(g36
S'\x00\x00\x80?'
p1826
tp1827
Rp1828
ag32
(g36
S'\x00\x00\x80?'
p1829
tp1830
Rp1831
ag32
(g36
S'\x00\x00\x80?'
p1832
tp1833
Rp1834
ag32
(g36
S'\x00\x00\x80?'
p1835
tp1836
Rp1837
ag32
(g36
S'\x00\x00\x80?'
p1838
tp1839
Rp1840
ag32
(g36
S'\x00\x00\x80?'
p1841
tp1842
Rp1843
ag32
(g36
S'\x00\x00\x80?'
p1844
tp1845
Rp1846
ag32
(g36
S'\x00\x00\x80?'
p1847
tp1848
Rp1849
ag32
(g36
S'\x00\x00\x80?'
p1850
tp1851
Rp1852
ag32
(g36
S'\x00\x00\x80?'
p1853
tp1854
Rp1855
ag32
(g36
S'\x00\x00\x80?'
p1856
tp1857
Rp1858
ag32
(g36
S'\x00\x00\x80?'
p1859
tp1860
Rp1861
ag32
(g36
S'\x00\x00\x80?'
p1862
tp1863
Rp1864
ag32
(g36
S'\x00\x00\x80?'
p1865
tp1866
Rp1867
ag32
(g36
S'\x00\x00\x80?'
p1868
tp1869
Rp1870
ag32
(g36
S'\x00\x00\x80?'
p1871
tp1872
Rp1873
ag32
(g36
S'\x00\x00\x80?'
p1874
tp1875
Rp1876
ag32
(g36
S'\x00\x00\x80?'
p1877
tp1878
Rp1879
ag32
(g36
S'\x00\x00\x80?'
p1880
tp1881
Rp1882
ag32
(g36
S'\x00\x00\x80?'
p1883
tp1884
Rp1885
ag32
(g36
S'\x00\x00\x80?'
p1886
tp1887
Rp1888
ag32
(g36
S'\x00\x00\x80?'
p1889
tp1890
Rp1891
ag32
(g36
S'\x00\x00\x80?'
p1892
tp1893
Rp1894
ag32
(g36
S'\x00\x00\x80?'
p1895
tp1896
Rp1897
ag32
(g36
S'\x00\x00\x80?'
p1898
tp1899
Rp1900
ag32
(g36
S'\x00\x00\x80?'
p1901
tp1902
Rp1903
ag32
(g36
S'\x00\x00\x80?'
p1904
tp1905
Rp1906
ag32
(g36
S'\x00\x00\x80?'
p1907
tp1908
Rp1909
ag32
(g36
S'\x00\x00\x80?'
p1910
tp1911
Rp1912
ag32
(g36
S'\x00\x00\x80?'
p1913
tp1914
Rp1915
ag32
(g36
S'\x00\x00\x80?'
p1916
tp1917
Rp1918
ag32
(g36
S'\x00\x00\x80?'
p1919
tp1920
Rp1921
ag32
(g36
S'\x00\x00\x80?'
p1922
tp1923
Rp1924
ag32
(g36
S'\x00\x00\x80?'
p1925
tp1926
Rp1927
ag32
(g36
S'\x00\x00\x80?'
p1928
tp1929
Rp1930
ag32
(g36
S'\x00\x00\x80?'
p1931
tp1932
Rp1933
ag32
(g36
S'\x00\x00\x80?'
p1934
tp1935
Rp1936
ag32
(g36
S'\x00\x00\x80?'
p1937
tp1938
Rp1939
ag32
(g36
S'\x00\x00\x80?'
p1940
tp1941
Rp1942
ag32
(g36
S'\x00\x00\x80?'
p1943
tp1944
Rp1945
ag32
(g36
S'\x00\x00\x80?'
p1946
tp1947
Rp1948
ag32
(g36
S'\x00\x00\x80?'
p1949
tp1950
Rp1951
ag32
(g36
S'\x00\x00\x80?'
p1952
tp1953
Rp1954
ag32
(g36
S'\x00\x00\x80?'
p1955
tp1956
Rp1957
ag32
(g36
S'\x00\x00\x80?'
p1958
tp1959
Rp1960
ag32
(g36
S'\x00\x00\x80?'
p1961
tp1962
Rp1963
ag32
(g36
S'\x00\x00\x80?'
p1964
tp1965
Rp1966
ag32
(g36
S'\x00\x00\x80?'
p1967
tp1968
Rp1969
ag32
(g36
S'\x00\x00\x80?'
p1970
tp1971
Rp1972
ag32
(g36
S'\x00\x00\x80?'
p1973
tp1974
Rp1975
ag32
(g36
S'\x00\x00\x80?'
p1976
tp1977
Rp1978
ag32
(g36
S'\x00\x00\x80?'
p1979
tp1980
Rp1981
ag32
(g36
S'\x00\x00\x80?'
p1982
tp1983
Rp1984
ag32
(g36
S'\x00\x00\x80?'
p1985
tp1986
Rp1987
ag32
(g36
S'\x00\x00\x80?'
p1988
tp1989
Rp1990
ag32
(g36
S'\x00\x00\x80?'
p1991
tp1992
Rp1993
ag32
(g36
S'\x00\x00\x80?'
p1994
tp1995
Rp1996
ag32
(g36
S'\x00\x00\x80?'
p1997
tp1998
Rp1999
ag32
(g36
S'\x00\x00\x80?'
p2000
tp2001
Rp2002
ag32
(g36
S'\x00\x00\x80?'
p2003
tp2004
Rp2005
ag32
(g36
S'\x00\x00\x80?'
p2006
tp2007
Rp2008
ag32
(g36
S'\x00\x00\x80?'
p2009
tp2010
Rp2011
ag32
(g36
S'\x00\x00\x80?'
p2012
tp2013
Rp2014
ag32
(g36
S'\x00\x00\x80?'
p2015
tp2016
Rp2017
ag32
(g36
S'\x00\x00\x80?'
p2018
tp2019
Rp2020
ag32
(g36
S'\x00\x00\x80?'
p2021
tp2022
Rp2023
ag32
(g36
S'\x00\x00\x80?'
p2024
tp2025
Rp2026
ag32
(g36
S'\x00\x00\x80?'
p2027
tp2028
Rp2029
ag32
(g36
S'\x00\x00\x80?'
p2030
tp2031
Rp2032
ag32
(g36
S'\x00\x00\x80?'
p2033
tp2034
Rp2035
ag32
(g36
S'\x00\x00\x80?'
p2036
tp2037
Rp2038
ag32
(g36
S'\x00\x00\x80?'
p2039
tp2040
Rp2041
ag32
(g36
S'\x00\x00\x80?'
p2042
tp2043
Rp2044
ag32
(g36
S'\x00\x00\x80?'
p2045
tp2046
Rp2047
ag32
(g36
S'\x00\x00\x80?'
p2048
tp2049
Rp2050
ag32
(g36
S'\x00\x00\x80?'
p2051
tp2052
Rp2053
ag32
(g36
S'\x00\x00\x80?'
p2054
tp2055
Rp2056
ag32
(g36
S'\x00\x00\x80?'
p2057
tp2058
Rp2059
ag32
(g36
S'\x00\x00\x80?'
p2060
tp2061
Rp2062
ag32
(g36
S'\x00\x00\x80?'
p2063
tp2064
Rp2065
ag32
(g36
S'\x00\x00\x80?'
p2066
tp2067
Rp2068
ag32
(g36
S'\x00\x00\x80?'
p2069
tp2070
Rp2071
ag32
(g36
S'\x00\x00\x80?'
p2072
tp2073
Rp2074
ag32
(g36
S'\x00\x00\x80?'
p2075
tp2076
Rp2077
ag32
(g36
S'\x00\x00\x80?'
p2078
tp2079
Rp2080
ag32
(g36
S'\x00\x00\x80?'
p2081
tp2082
Rp2083
ag32
(g36
S'\x00\x00\x80?'
p2084
tp2085
Rp2086
ag32
(g36
S'\x00\x00\x80?'
p2087
tp2088
Rp2089
ag32
(g36
S'\x00\x00\x80?'
p2090
tp2091
Rp2092
ag32
(g36
S'\x00\x00\x80?'
p2093
tp2094
Rp2095
ag32
(g36
S'\x00\x00\x80?'
p2096
tp2097
Rp2098
ag32
(g36
S'\x00\x00\x80?'
p2099
tp2100
Rp2101
ag32
(g36
S'\x00\x00\x80?'
p2102
tp2103
Rp2104
ag32
(g36
S'\x00\x00\x80?'
p2105
tp2106
Rp2107
ag32
(g36
S'\x00\x00\x80?'
p2108
tp2109
Rp2110
ag32
(g36
S'\x00\x00\x80?'
p2111
tp2112
Rp2113
ag32
(g36
S'\x00\x00\x80?'
p2114
tp2115
Rp2116
ag32
(g36
S'\x00\x00\x80?'
p2117
tp2118
Rp2119
ag32
(g36
S'\x00\x00\x80?'
p2120
tp2121
Rp2122
ag32
(g36
S'\x00\x00\x80?'
p2123
tp2124
Rp2125
ag32
(g36
S'\x00\x00\x80?'
p2126
tp2127
Rp2128
ag32
(g36
S'\x00\x00\x80?'
p2129
tp2130
Rp2131
ag32
(g36
S'\x00\x00\x80?'
p2132
tp2133
Rp2134
ag32
(g36
S'\x00\x00\x80?'
p2135
tp2136
Rp2137
ag32
(g36
S'\x00\x00\x80?'
p2138
tp2139
Rp2140
ag32
(g36
S'\x00\x00\x80?'
p2141
tp2142
Rp2143
ag32
(g36
S'\x00\x00\x80?'
p2144
tp2145
Rp2146
ag32
(g36
S'\x00\x00\x80?'
p2147
tp2148
Rp2149
ag32
(g36
S'\x00\x00\x80?'
p2150
tp2151
Rp2152
ag32
(g36
S'\x00\x00\x80?'
p2153
tp2154
Rp2155
ag32
(g36
S'\x00\x00\x80?'
p2156
tp2157
Rp2158
ag32
(g36
S'\x00\x00\x80?'
p2159
tp2160
Rp2161
ag32
(g36
S'\x00\x00\x80?'
p2162
tp2163
Rp2164
ag32
(g36
S'\x00\x00\x80?'
p2165
tp2166
Rp2167
ag32
(g36
S'\x00\x00\x80?'
p2168
tp2169
Rp2170
ag32
(g36
S'\x00\x00\x80?'
p2171
tp2172
Rp2173
ag32
(g36
S'\x00\x00\x80?'
p2174
tp2175
Rp2176
ag32
(g36
S'\x00\x00\x80?'
p2177
tp2178
Rp2179
ag32
(g36
S'\x00\x00\x80?'
p2180
tp2181
Rp2182
ag32
(g36
S'\x00\x00\x80?'
p2183
tp2184
Rp2185
ag32
(g36
S'\x00\x00\x80?'
p2186
tp2187
Rp2188
ag32
(g36
S'\x00\x00\x80?'
p2189
tp2190
Rp2191
ag32
(g36
S'\x00\x00\x80?'
p2192
tp2193
Rp2194
ag32
(g36
S'\x00\x00\x80?'
p2195
tp2196
Rp2197
ag32
(g36
S'\x00\x00\x80?'
p2198
tp2199
Rp2200
ag32
(g36
S'\x00\x00\x80?'
p2201
tp2202
Rp2203
ag32
(g36
S'\x00\x00\x80?'
p2204
tp2205
Rp2206
ag32
(g36
S'\x00\x00\x80?'
p2207
tp2208
Rp2209
ag32
(g36
S'\x00\x00\x80?'
p2210
tp2211
Rp2212
ag32
(g36
S'\x00\x00\x80?'
p2213
tp2214
Rp2215
ag32
(g36
S'\x00\x00\x80?'
p2216
tp2217
Rp2218
ag32
(g36
S'\x00\x00\x80?'
p2219
tp2220
Rp2221
ag32
(g36
S'\x00\x00\x80?'
p2222
tp2223
Rp2224
ag32
(g36
S'\x00\x00\x80?'
p2225
tp2226
Rp2227
ag32
(g36
S'\x00\x00\x80?'
p2228
tp2229
Rp2230
ag32
(g36
S'\x00\x00\x80?'
p2231
tp2232
Rp2233
ag32
(g36
S'\x00\x00\x80?'
p2234
tp2235
Rp2236
ag32
(g36
S'\x00\x00\x80?'
p2237
tp2238
Rp2239
ag32
(g36
S'\x00\x00\x80?'
p2240
tp2241
Rp2242
ag32
(g36
S'\x00\x00\x80?'
p2243
tp2244
Rp2245
ag32
(g36
S'\x00\x00\x80?'
p2246
tp2247
Rp2248
ag32
(g36
S'\x00\x00\x80?'
p2249
tp2250
Rp2251
ag32
(g36
S'\x00\x00\x80?'
p2252
tp2253
Rp2254
ag32
(g36
S'\x00\x00\x80?'
p2255
tp2256
Rp2257
ag32
(g36
S'\x00\x00\x80?'
p2258
tp2259
Rp2260
ag32
(g36
S'\x00\x00\x80?'
p2261
tp2262
Rp2263
ag32
(g36
S'\x00\x00\x80?'
p2264
tp2265
Rp2266
ag32
(g36
S'\x00\x00\x80?'
p2267
tp2268
Rp2269
ag32
(g36
S'\x00\x00\x80?'
p2270
tp2271
Rp2272
ag32
(g36
S'\x00\x00\x80?'
p2273
tp2274
Rp2275
ag32
(g36
S'\x00\x00\x80?'
p2276
tp2277
Rp2278
ag32
(g36
S'\x00\x00\x80?'
p2279
tp2280
Rp2281
ag32
(g36
S'\x00\x00\x80?'
p2282
tp2283
Rp2284
ag32
(g36
S'\x00\x00\x80?'
p2285
tp2286
Rp2287
ag32
(g36
S'\x00\x00\x80?'
p2288
tp2289
Rp2290
ag32
(g36
S'\x00\x00\x80?'
p2291
tp2292
Rp2293
ag32
(g36
S'\x00\x00\x80?'
p2294
tp2295
Rp2296
ag32
(g36
S'\x00\x00\x80?'
p2297
tp2298
Rp2299
ag32
(g36
S'\x00\x00\x80?'
p2300
tp2301
Rp2302
ag32
(g36
S'\x00\x00\x80?'
p2303
tp2304
Rp2305
ag32
(g36
S'\x00\x00\x80?'
p2306
tp2307
Rp2308
ag32
(g36
S'\x00\x00\x80?'
p2309
tp2310
Rp2311
ag32
(g36
S'\x00\x00\x80?'
p2312
tp2313
Rp2314
ag32
(g36
S'\x00\x00\x80?'
p2315
tp2316
Rp2317
ag32
(g36
S'\x00\x00\x80?'
p2318
tp2319
Rp2320
ag32
(g36
S'\x00\x00\x80?'
p2321
tp2322
Rp2323
ag32
(g36
S'\x00\x00\x80?'
p2324
tp2325
Rp2326
ag32
(g36
S'\x00\x00\x80?'
p2327
tp2328
Rp2329
ag32
(g36
S'\x00\x00\x80?'
p2330
tp2331
Rp2332
ag32
(g36
S'\x00\x00\x80?'
p2333
tp2334
Rp2335
ag32
(g36
S'\x00\x00\x80?'
p2336
tp2337
Rp2338
ag32
(g36
S'\x00\x00\x80?'
p2339
tp2340
Rp2341
ag32
(g36
S'\x00\x00\x80?'
p2342
tp2343
Rp2344
ag32
(g36
S'\x00\x00\x80?'
p2345
tp2346
Rp2347
ag32
(g36
S'\x00\x00\x80?'
p2348
tp2349
Rp2350
ag32
(g36
S'\x00\x00\x80?'
p2351
tp2352
Rp2353
ag32
(g36
S'\x00\x00\x80?'
p2354
tp2355
Rp2356
ag32
(g36
S'\x00\x00\x80?'
p2357
tp2358
Rp2359
ag32
(g36
S'\x00\x00\x80?'
p2360
tp2361
Rp2362
ag32
(g36
S'\x00\x00\x80?'
p2363
tp2364
Rp2365
ag32
(g36
S'\x00\x00\x80?'
p2366
tp2367
Rp2368
ag32
(g36
S'\x00\x00\x80?'
p2369
tp2370
Rp2371
ag32
(g36
S'\x00\x00\x80?'
p2372
tp2373
Rp2374
ag32
(g36
S'\x00\x00\x80?'
p2375
tp2376
Rp2377
ag32
(g36
S'\x00\x00\x80?'
p2378
tp2379
Rp2380
ag32
(g36
S'\x00\x00\x80?'
p2381
tp2382
Rp2383
ag32
(g36
S'\x00\x00\x80?'
p2384
tp2385
Rp2386
ag32
(g36
S'\x00\x00\x80?'
p2387
tp2388
Rp2389
ag32
(g36
S'\x00\x00\x80?'
p2390
tp2391
Rp2392
ag32
(g36
S'\x00\x00\x80?'
p2393
tp2394
Rp2395
ag32
(g36
S'\x00\x00\x80?'
p2396
tp2397
Rp2398
ag32
(g36
S'\x00\x00\x80?'
p2399
tp2400
Rp2401
ag32
(g36
S'\x00\x00\x80?'
p2402
tp2403
Rp2404
ag32
(g36
S'\x00\x00\x80?'
p2405
tp2406
Rp2407
ag32
(g36
S'\x00\x00\x80?'
p2408
tp2409
Rp2410
ag32
(g36
S'\x00\x00\x80?'
p2411
tp2412
Rp2413
ag32
(g36
S'\x00\x00\x80?'
p2414
tp2415
Rp2416
ag32
(g36
S'\x00\x00\x80?'
p2417
tp2418
Rp2419
ag32
(g36
S'\x00\x00\x80?'
p2420
tp2421
Rp2422
ag32
(g36
S'\x00\x00\x80?'
p2423
tp2424
Rp2425
ag32
(g36
S'\x00\x00\x80?'
p2426
tp2427
Rp2428
ag32
(g36
S'\x00\x00\x80?'
p2429
tp2430
Rp2431
ag32
(g36
S'\x00\x00\x80?'
p2432
tp2433
Rp2434
ag32
(g36
S'\x00\x00\x80?'
p2435
tp2436
Rp2437
ag32
(g36
S'\x00\x00\x80?'
p2438
tp2439
Rp2440
ag32
(g36
S'\x00\x00\x80?'
p2441
tp2442
Rp2443
ag32
(g36
S'\x00\x00\x80?'
p2444
tp2445
Rp2446
ag32
(g36
S'\x00\x00\x80?'
p2447
tp2448
Rp2449
ag32
(g36
S'\x00\x00\x80?'
p2450
tp2451
Rp2452
ag32
(g36
S'\x00\x00\x80?'
p2453
tp2454
Rp2455
ag32
(g36
S'\x00\x00\x80?'
p2456
tp2457
Rp2458
ag32
(g36
S'\x00\x00\x80?'
p2459
tp2460
Rp2461
ag32
(g36
S'\x00\x00\x80?'
p2462
tp2463
Rp2464
ag32
(g36
S'\x00\x00\x80?'
p2465
tp2466
Rp2467
ag32
(g36
S'\x00\x00\x80?'
p2468
tp2469
Rp2470
ag32
(g36
S'\x00\x00\x80?'
p2471
tp2472
Rp2473
ag32
(g36
S'\x00\x00\x80?'
p2474
tp2475
Rp2476
ag32
(g36
S'\x00\x00\x80?'
p2477
tp2478
Rp2479
ag32
(g36
S'\x00\x00\x80?'
p2480
tp2481
Rp2482
ag32
(g36
S'\x00\x00\x80?'
p2483
tp2484
Rp2485
ag32
(g36
S'\x00\x00\x80?'
p2486
tp2487
Rp2488
ag32
(g36
S'\x00\x00\x80?'
p2489
tp2490
Rp2491
ag32
(g36
S'\x00\x00\x80?'
p2492
tp2493
Rp2494
ag32
(g36
S'\x00\x00\x80?'
p2495
tp2496
Rp2497
ag32
(g36
S'\x00\x00\x80?'
p2498
tp2499
Rp2500
ag32
(g36
S'\x00\x00\x80?'
p2501
tp2502
Rp2503
ag32
(g36
S'\x00\x00\x80?'
p2504
tp2505
Rp2506
ag32
(g36
S'\x00\x00\x80?'
p2507
tp2508
Rp2509
ag32
(g36
S'\x00\x00\x80?'
p2510
tp2511
Rp2512
ag32
(g36
S'\x00\x00\x80?'
p2513
tp2514
Rp2515
ag32
(g36
S'\x00\x00\x80?'
p2516
tp2517
Rp2518
ag32
(g36
S'\x00\x00\x80?'
p2519
tp2520
Rp2521
ag32
(g36
S'\x00\x00\x80?'
p2522
tp2523
Rp2524
ag32
(g36
S'\x00\x00\x80?'
p2525
tp2526
Rp2527
ag32
(g36
S'\x00\x00\x80?'
p2528
tp2529
Rp2530
ag32
(g36
S'\x00\x00\x80?'
p2531
tp2532
Rp2533
ag32
(g36
S'\x00\x00\x80?'
p2534
tp2535
Rp2536
ag32
(g36
S'\x00\x00\x80?'
p2537
tp2538
Rp2539
ag32
(g36
S'\x00\x00\x80?'
p2540
tp2541
Rp2542
ag32
(g36
S'\x00\x00\x80?'
p2543
tp2544
Rp2545
ag32
(g36
S'\x00\x00\x80?'
p2546
tp2547
Rp2548
ag32
(g36
S'\x00\x00\x80?'
p2549
tp2550
Rp2551
ag32
(g36
S'\x00\x00\x80?'
p2552
tp2553
Rp2554
ag32
(g36
S'\x00\x00\x80?'
p2555
tp2556
Rp2557
ag32
(g36
S'\x00\x00\x80?'
p2558
tp2559
Rp2560
ag32
(g36
S'\x00\x00\x80?'
p2561
tp2562
Rp2563
ag32
(g36
S'\x00\x00\x80?'
p2564
tp2565
Rp2566
ag32
(g36
S'\x00\x00\x80?'
p2567
tp2568
Rp2569
aasS'acc_epochs'
p2570
(lp2571
sS'lambda_s1_resize'
p2572
F0.0
sS'lambda_s1_normal'
p2573
F0.0
sS'lambda_w1_resize'
p2574
F0.0
sS'acc_train'
p2575
(lp2576
sS'acc_train_normal'
p2577
(lp2578
sS'lambda_w1_normal'
p2579
F0.0
sS'alphas_resize'
p2580
(lp2581
sS'initial_sigma2'
p2582
F1.0
sS'initial_sigma3'
p2583
F1.0
sS'initial_sigma1'
p2584
F1.5
sS'N1'
p2585
I64
sS'N2'
p2586
I64
sS'N3'
p2587
I64
sS'order2'
p2588
I2
sS'order3'
p2589
I2
sS'path_model_normal'
p2590
S'/results/results-1000-1/para-normal.ckpt'
p2591
sS'order1'
p2592
I3
sS'loss'
p2593
(lp2594
g32
(g36
S'\xebUw@'
p2595
tp2596
Rp2597
ag32
(g36
S'\xba\x82\xd3@'
p2598
tp2599
Rp2600
ag32
(g36
S'\xc2\x94\xa0@'
p2601
tp2602
Rp2603
ag32
(g36
S'H!\x9a@'
p2604
tp2605
Rp2606
ag32
(g36
S'\xaa.\xd3@'
p2607
tp2608
Rp2609
ag32
(g36
S'\x809\xa9@'
p2610
tp2611
Rp2612
ag32
(g36
S'\xe4\x9dl@'
p2613
tp2614
Rp2615
ag32
(g36
S'}\xe0n@'
p2616
tp2617
Rp2618
ag32
(g36
S'X\x91T@'
p2619
tp2620
Rp2621
ag32
(g36
S"\xe2';@"
p2622
tp2623
Rp2624
ag32
(g36
S'\x10\x10$@'
p2625
tp2626
Rp2627
ag32
(g36
S'\xaa!G@'
p2628
tp2629
Rp2630
ag32
(g36
S'\xc4\x056@'
p2631
tp2632
Rp2633
ag32
(g36
S'\x9atI@'
p2634
tp2635
Rp2636
ag32
(g36
S'\x12n/@'
p2637
tp2638
Rp2639
ag32
(g36
S'\\)6@'
p2640
tp2641
Rp2642
ag32
(g36
S'\x17\x00^@'
p2643
tp2644
Rp2645
ag32
(g36
S'\xd4oQ@'
p2646
tp2647
Rp2648
ag32
(g36
S'JV-@'
p2649
tp2650
Rp2651
ag32
(g36
S'\x1c\xb8>@'
p2652
tp2653
Rp2654
ag32
(g36
S'R\xc9P@'
p2655
tp2656
Rp2657
ag32
(g36
S'\x9c\x9d\r@'
p2658
tp2659
Rp2660
ag32
(g36
S'\t\xf2\x1d@'
p2661
tp2662
Rp2663
ag32
(g36
S'\xd8\x8a\x0e@'
p2664
tp2665
Rp2666
ag32
(g36
S'\xfc\xc3+@'
p2667
tp2668
Rp2669
ag32
(g36
S'\xb1\xe2\x17@'
p2670
tp2671
Rp2672
ag32
(g36
S'&\x1a\x1f@'
p2673
tp2674
Rp2675
ag32
(g36
S'.\xfe\x1f@'
p2676
tp2677
Rp2678
ag32
(g36
S'\xb1\xb69@'
p2679
tp2680
Rp2681
ag32
(g36
S'\xd7|D@'
p2682
tp2683
Rp2684
ag32
(g36
S'\xed\xe3\x10@'
p2685
tp2686
Rp2687
ag32
(g36
S'\x94\x05\x1b@'
p2688
tp2689
Rp2690
ag32
(g36
S'\xc5I\x0f@'
p2691
tp2692
Rp2693
ag32
(g36
S'\x9a\x06\x06@'
p2694
tp2695
Rp2696
ag32
(g36
S']w*@'
p2697
tp2698
Rp2699
ag32
(g36
S'l(#@'
p2700
tp2701
Rp2702
ag32
(g36
S'u\x8d&@'
p2703
tp2704
Rp2705
ag32
(g36
S'\xa2\x1f\x0e@'
p2706
tp2707
Rp2708
ag32
(g36
S'C\xf7\x04@'
p2709
tp2710
Rp2711
ag32
(g36
S't\x99%@'
p2712
tp2713
Rp2714
ag32
(g36
S'[\x0b,@'
p2715
tp2716
Rp2717
ag32
(g36
S'\x9aM\x1b@'
p2718
tp2719
Rp2720
ag32
(g36
S'\xb4&\xfc?'
p2721
tp2722
Rp2723
ag32
(g36
S'\x94\xd5 @'
p2724
tp2725
Rp2726
ag32
(g36
S'2\xe9\x02@'
p2727
tp2728
Rp2729
ag32
(g36
S'jj\x0c@'
p2730
tp2731
Rp2732
ag32
(g36
S'\xf7O.@'
p2733
tp2734
Rp2735
ag32
(g36
S'r\xf82@'
p2736
tp2737
Rp2738
ag32
(g36
S'\xba-\xe1?'
p2739
tp2740
Rp2741
ag32
(g36
S'\x1f\n\x16@'
p2742
tp2743
Rp2744
ag32
(g36
S'\xba\xb7\x11@'
p2745
tp2746
Rp2747
ag32
(g36
S'\t?\x05@'
p2748
tp2749
Rp2750
ag32
(g36
S'\x83%\n@'
p2751
tp2752
Rp2753
ag32
(g36
S'\xf3_\r@'
p2754
tp2755
Rp2756
ag32
(g36
S'\xf29"@'
p2757
tp2758
Rp2759
ag32
(g36
S'\x9b7\x03@'
p2760
tp2761
Rp2762
ag32
(g36
S'\xda\x12\x10@'
p2763
tp2764
Rp2765
ag32
(g36
S'@\xd7\x0b@'
p2766
tp2767
Rp2768
ag32
(g36
S'\x10\\\x1c@'
p2769
tp2770
Rp2771
ag32
(g36
S'\x8a\xd5\x15@'
p2772
tp2773
Rp2774
ag32
(g36
S'4\xf2\x04@'
p2775
tp2776
Rp2777
ag32
(g36
S'U\x0e\xf0?'
p2778
tp2779
Rp2780
ag32
(g36
S'\xbbI%@'
p2781
tp2782
Rp2783
ag32
(g36
S'\xe3\xaf\r@'
p2784
tp2785
Rp2786
ag32
(g36
S'\x05:\x02@'
p2787
tp2788
Rp2789
ag32
(g36
S'=\xa3\x0e@'
p2790
tp2791
Rp2792
ag32
(g36
S'\xe2*\xf6?'
p2793
tp2794
Rp2795
ag32
(g36
S'\xc0\xca\x02@'
p2796
tp2797
Rp2798
ag32
(g36
S'\x14x\x1a@'
p2799
tp2800
Rp2801
ag32
(g36
S'\x92z\x11@'
p2802
tp2803
Rp2804
ag32
(g36
S'\x1ah#@'
p2805
tp2806
Rp2807
ag32
(g36
S'\xce\xe7\x07@'
p2808
tp2809
Rp2810
ag32
(g36
S'\x1f\xfb\r@'
p2811
tp2812
Rp2813
ag32
(g36
S'TP\x1e@'
p2814
tp2815
Rp2816
ag32
(g36
S'c\xa3"@'
p2817
tp2818
Rp2819
ag32
(g36
S'\x8c\xc2\x17@'
p2820
tp2821
Rp2822
ag32
(g36
S'R\xc8\x16@'
p2823
tp2824
Rp2825
ag32
(g36
S'n\x90\x17@'
p2826
tp2827
Rp2828
ag32
(g36
S'\xc6\x92\n@'
p2829
tp2830
Rp2831
ag32
(g36
S'\x9c\x1f\x0e@'
p2832
tp2833
Rp2834
ag32
(g36
S'^\xf8\x02@'
p2835
tp2836
Rp2837
ag32
(g36
S'e\xc2\x03@'
p2838
tp2839
Rp2840
ag32
(g36
S'\xd8\x1b\x07@'
p2841
tp2842
Rp2843
ag32
(g36
S'PH\xe5?'
p2844
tp2845
Rp2846
ag32
(g36
S'\x98D\x1d@'
p2847
tp2848
Rp2849
ag32
(g36
S'\x9a\xa8\x0c@'
p2850
tp2851
Rp2852
ag32
(g36
S'\x9d\xc2\t@'
p2853
tp2854
Rp2855
ag32
(g36
S'\x14\xf3\x11@'
p2856
tp2857
Rp2858
ag32
(g36
S'V\xf3\xfa?'
p2859
tp2860
Rp2861
ag32
(g36
S'l\xa2\x0e@'
p2862
tp2863
Rp2864
ag32
(g36
S'\xf1n\xcf?'
p2865
tp2866
Rp2867
ag32
(g36
S'\x8d\x0f\x03@'
p2868
tp2869
Rp2870
ag32
(g36
S'\x90\xc3\x10@'
p2871
tp2872
Rp2873
ag32
(g36
S'*\xcd\x05@'
p2874
tp2875
Rp2876
ag32
(g36
S'\x01z\x06@'
p2877
tp2878
Rp2879
ag32
(g36
S'\xecB\xfb?'
p2880
tp2881
Rp2882
ag32
(g36
S'\x8f\xd4\xe3?'
p2883
tp2884
Rp2885
ag32
(g36
S'\xc4G\xea?'
p2886
tp2887
Rp2888
ag32
(g36
S'\xe4\xa0\x07@'
p2889
tp2890
Rp2891
ag32
(g36
S'In\x1c@'
p2892
tp2893
Rp2894
ag32
(g36
S'P\x12\x0f@'
p2895
tp2896
Rp2897
ag32
(g36
S'\xf2&\xfa?'
p2898
tp2899
Rp2900
ag32
(g36
S'}\xde\xf7?'
p2901
tp2902
Rp2903
ag32
(g36
S'\x08\xf4$@'
p2904
tp2905
Rp2906
ag32
(g36
S'\x18v\xee?'
p2907
tp2908
Rp2909
ag32
(g36
S'\x85\x8a\xe0?'
p2910
tp2911
Rp2912
ag32
(g36
S'_\xa1\r@'
p2913
tp2914
Rp2915
ag32
(g36
S'\xe8\x97\xeb?'
p2916
tp2917
Rp2918
ag32
(g36
S'\x1f=\xda?'
p2919
tp2920
Rp2921
ag32
(g36
S'\x9cm\xf4?'
p2922
tp2923
Rp2924
ag32
(g36
S'\xae\xf3\xf2?'
p2925
tp2926
Rp2927
ag32
(g36
S'\xea\x17\n@'
p2928
tp2929
Rp2930
ag32
(g36
S'\t\xaa\x0b@'
p2931
tp2932
Rp2933
ag32
(g36
S'u0\x10@'
p2934
tp2935
Rp2936
ag32
(g36
S'\xefW\xfc?'
p2937
tp2938
Rp2939
ag32
(g36
S'\x92@\xfe?'
p2940
tp2941
Rp2942
ag32
(g36
S'\xe1\x8b\xf1?'
p2943
tp2944
Rp2945
ag32
(g36
S'\xbe\x86\xd0?'
p2946
tp2947
Rp2948
ag32
(g36
S'\xae\x9f\xec?'
p2949
tp2950
Rp2951
ag32
(g36
S'\x06\x85\xf2?'
p2952
tp2953
Rp2954
ag32
(g36
S'5\xe7 @'
p2955
tp2956
Rp2957
ag32
(g36
S'44\xf5?'
p2958
tp2959
Rp2960
ag32
(g36
S'@\x00\x00@'
p2961
tp2962
Rp2963
ag32
(g36
S'\xc6W\x04@'
p2964
tp2965
Rp2966
ag32
(g36
S'7\x16\xf4?'
p2967
tp2968
Rp2969
ag32
(g36
S'\xf6\xb3\x02@'
p2970
tp2971
Rp2972
ag32
(g36
S'D6\x00@'
p2973
tp2974
Rp2975
ag32
(g36
S'\x8a\r\xe1?'
p2976
tp2977
Rp2978
ag32
(g36
S'\xbe\xee\xe1?'
p2979
tp2980
Rp2981
ag32
(g36
S'R@\x00@'
p2982
tp2983
Rp2984
ag32
(g36
S'\x0e\xfe\xcf?'
p2985
tp2986
Rp2987
ag32
(g36
S'(\x8a\x08@'
p2988
tp2989
Rp2990
ag32
(g36
S'\xcam\xc5?'
p2991
tp2992
Rp2993
ag32
(g36
S'\x924\x03@'
p2994
tp2995
Rp2996
ag32
(g36
S'\xc0\x97\xed?'
p2997
tp2998
Rp2999
ag32
(g36
S'^\x81\x0c@'
p3000
tp3001
Rp3002
ag32
(g36
S'>\x8d\xbd?'
p3003
tp3004
Rp3005
ag32
(g36
S'\xc45/@'
p3006
tp3007
Rp3008
ag32
(g36
S'\x98\xa8\x0e@'
p3009
tp3010
Rp3011
ag32
(g36
S'\x8b3\xe3?'
p3012
tp3013
Rp3014
ag32
(g36
S'y\xbd\xd9?'
p3015
tp3016
Rp3017
ag32
(g36
S'\xa08\x0e@'
p3018
tp3019
Rp3020
ag32
(g36
S'\xd2\xc7\xf5?'
p3021
tp3022
Rp3023
ag32
(g36
S'\xc6s\xe8?'
p3024
tp3025
Rp3026
ag32
(g36
S'\x92\x06\xa2?'
p3027
tp3028
Rp3029
ag32
(g36
S'\xe6z\xc6?'
p3030
tp3031
Rp3032
ag32
(g36
S's\xdc\xe5?'
p3033
tp3034
Rp3035
ag32
(g36
S'\x84\xc5\xf3?'
p3036
tp3037
Rp3038
ag32
(g36
S'\xe6\xef\xfd?'
p3039
tp3040
Rp3041
ag32
(g36
S'\x9e\xa6\xc9?'
p3042
tp3043
Rp3044
ag32
(g36
S'\x8f\xc1\x06@'
p3045
tp3046
Rp3047
ag32
(g36
S'da#@'
p3048
tp3049
Rp3050
ag32
(g36
S'\x98\xf8\xe1?'
p3051
tp3052
Rp3053
ag32
(g36
S'\x98\x10\x05@'
p3054
tp3055
Rp3056
ag32
(g36
S'\x06B\xd9?'
p3057
tp3058
Rp3059
ag32
(g36
S'\xa5\xfd\xfb?'
p3060
tp3061
Rp3062
ag32
(g36
S'\xe9\xba\xb9?'
p3063
tp3064
Rp3065
ag32
(g36
S'\xaaD\xe6?'
p3066
tp3067
Rp3068
ag32
(g36
S'j\xea\n@'
p3069
tp3070
Rp3071
ag32
(g36
S'jB\xdd?'
p3072
tp3073
Rp3074
ag32
(g36
S'\x9dp\x07@'
p3075
tp3076
Rp3077
ag32
(g36
S'_\x99\x02@'
p3078
tp3079
Rp3080
ag32
(g36
S'g\xd6\xea?'
p3081
tp3082
Rp3083
ag32
(g36
S'\xe0\xdc\xe3?'
p3084
tp3085
Rp3086
ag32
(g36
S'"\t\xcb?'
p3087
tp3088
Rp3089
ag32
(g36
S'\x98/\xd4?'
p3090
tp3091
Rp3092
ag32
(g36
S'9\r\xdd?'
p3093
tp3094
Rp3095
ag32
(g36
S'\x9a\xf7\xea?'
p3096
tp3097
Rp3098
ag32
(g36
S'\x8b\xb0\x03@'
p3099
tp3100
Rp3101
ag32
(g36
S'\x87\xb2\xee?'
p3102
tp3103
Rp3104
ag32
(g36
S'\x88|\xea?'
p3105
tp3106
Rp3107
ag32
(g36
S'\xe4\x15\xdb?'
p3108
tp3109
Rp3110
ag32
(g36
S'\x8a0\xb9?'
p3111
tp3112
Rp3113
ag32
(g36
S'k\xaf\xe9?'
p3114
tp3115
Rp3116
ag32
(g36
S'Jo\xda?'
p3117
tp3118
Rp3119
ag32
(g36
S'\xb5\xa6\xbc?'
p3120
tp3121
Rp3122
ag32
(g36
S']K\xd1?'
p3123
tp3124
Rp3125
ag32
(g36
S'\xf0\xe6\x88?'
p3126
tp3127
Rp3128
ag32
(g36
S'z_\xfa?'
p3129
tp3130
Rp3131
ag32
(g36
S'\xa5"\xb0?'
p3132
tp3133
Rp3134
ag32
(g36
S'*\x08\xc9?'
p3135
tp3136
Rp3137
ag32
(g36
S'\xad@\xc1?'
p3138
tp3139
Rp3140
ag32
(g36
S'\x9c\x0e\xf5?'
p3141
tp3142
Rp3143
ag32
(g36
S'\nm\xc3?'
p3144
tp3145
Rp3146
ag32
(g36
S'\x1b;\xee?'
p3147
tp3148
Rp3149
ag32
(g36
S'\x84!\xe6?'
p3150
tp3151
Rp3152
ag32
(g36
S'*\x91\xe7?'
p3153
tp3154
Rp3155
ag32
(g36
S'$:\xa6?'
p3156
tp3157
Rp3158
ag32
(g36
S'\xd1\x19\x9b?'
p3159
tp3160
Rp3161
ag32
(g36
S'L\xcc\xbf?'
p3162
tp3163
Rp3164
ag32
(g36
S'\xed\x8a\xbd?'
p3165
tp3166
Rp3167
ag32
(g36
S'\x90\x14\xac?'
p3168
tp3169
Rp3170
ag32
(g36
S'%\x0c\xbf?'
p3171
tp3172
Rp3173
ag32
(g36
S'\xb8\xc4\xb7?'
p3174
tp3175
Rp3176
ag32
(g36
S'$\x91\xb6?'
p3177
tp3178
Rp3179
ag32
(g36
S'\xb6,\xcb?'
p3180
tp3181
Rp3182
ag32
(g36
S'\x8f<\xf6?'
p3183
tp3184
Rp3185
ag32
(g36
S'\xe0D\xd1?'
p3186
tp3187
Rp3188
ag32
(g36
S'lR\xb7?'
p3189
tp3190
Rp3191
ag32
(g36
S'\x16]\xe3?'
p3192
tp3193
Rp3194
ag32
(g36
S'\\\x18\xf3?'
p3195
tp3196
Rp3197
ag32
(g36
S'\x1d/\xd5?'
p3198
tp3199
Rp3200
ag32
(g36
S':\xa1\xab?'
p3201
tp3202
Rp3203
ag32
(g36
S'\x195\xe5?'
p3204
tp3205
Rp3206
ag32
(g36
S'\xf7\x80\xf0?'
p3207
tp3208
Rp3209
ag32
(g36
S'\x0fa\xd6?'
p3210
tp3211
Rp3212
ag32
(g36
S'\xadl\xdd?'
p3213
tp3214
Rp3215
ag32
(g36
S'@5\xf2?'
p3216
tp3217
Rp3218
ag32
(g36
S'h\x15\xb4?'
p3219
tp3220
Rp3221
ag32
(g36
S'UU\x9f?'
p3222
tp3223
Rp3224
ag32
(g36
S'pf\xe6?'
p3225
tp3226
Rp3227
ag32
(g36
S'\xa6\xbf\xfe?'
p3228
tp3229
Rp3230
ag32
(g36
S'\xb0\xb9\xda?'
p3231
tp3232
Rp3233
ag32
(g36
S'\xc0\xff\xfb?'
p3234
tp3235
Rp3236
ag32
(g36
S'\x88c\xef?'
p3237
tp3238
Rp3239
ag32
(g36
S'\xbd\xe9\xb5?'
p3240
tp3241
Rp3242
ag32
(g36
S'\xc4|\xbd?'
p3243
tp3244
Rp3245
ag32
(g36
S'|\xca\xbb?'
p3246
tp3247
Rp3248
ag32
(g36
S'L\xff\xc7?'
p3249
tp3250
Rp3251
ag32
(g36
S'f\x83\xd9?'
p3252
tp3253
Rp3254
ag32
(g36
S'\xb5\xb4\xe5?'
p3255
tp3256
Rp3257
ag32
(g36
S'\xe2\x19\xb3?'
p3258
tp3259
Rp3260
ag32
(g36
S'\xa8l\xad?'
p3261
tp3262
Rp3263
ag32
(g36
S'D\x0e\xab?'
p3264
tp3265
Rp3266
ag32
(g36
S'|w\xd9?'
p3267
tp3268
Rp3269
ag32
(g36
S'\x92\x03\x97?'
p3270
tp3271
Rp3272
ag32
(g36
S'P\x9b\xf4?'
p3273
tp3274
Rp3275
ag32
(g36
S'\xf6\xcd\xad?'
p3276
tp3277
Rp3278
ag32
(g36
S'\x16R\xfb?'
p3279
tp3280
Rp3281
ag32
(g36
S'>\xc0\xe6?'
p3282
tp3283
Rp3284
ag32
(g36
S'\x14\x08\xf7?'
p3285
tp3286
Rp3287
ag32
(g36
S'd\r\xc8?'
p3288
tp3289
Rp3290
ag32
(g36
S'H\xe9\xb1?'
p3291
tp3292
Rp3293
ag32
(g36
S'\xad\xe9\xeb?'
p3294
tp3295
Rp3296
ag32
(g36
S'\x88\x00\xac?'
p3297
tp3298
Rp3299
ag32
(g36
S'R.\xb4?'
p3300
tp3301
Rp3302
ag32
(g36
S'\xaa\xd8\xa7?'
p3303
tp3304
Rp3305
ag32
(g36
S't\xcf\x01@'
p3306
tp3307
Rp3308
ag32
(g36
S'\x1en\xcd?'
p3309
tp3310
Rp3311
ag32
(g36
S'\x1a\xa2\xbe?'
p3312
tp3313
Rp3314
ag32
(g36
S'\xae\xf7\x84?'
p3315
tp3316
Rp3317
ag32
(g36
S'\xe0\xcd\x04@'
p3318
tp3319
Rp3320
ag32
(g36
S'\xd88\xd9?'
p3321
tp3322
Rp3323
ag32
(g36
S'\x84\x84\xd7?'
p3324
tp3325
Rp3326
ag32
(g36
S'L\x9b\x94?'
p3327
tp3328
Rp3329
ag32
(g36
S'\x00"\x8d?'
p3330
tp3331
Rp3332
ag32
(g36
S'\x10\xba\xcc?'
p3333
tp3334
Rp3335
ag32
(g36
S'&,\xd0?'
p3336
tp3337
Rp3338
ag32
(g36
S'\xaf\x07\xfb?'
p3339
tp3340
Rp3341
ag32
(g36
S'\xcb\xce\xb1?'
p3342
tp3343
Rp3344
ag32
(g36
S'\xc1`\xbd?'
p3345
tp3346
Rp3347
ag32
(g36
S'i\n\t@'
p3348
tp3349
Rp3350
ag32
(g36
S'P\x0c\xb4?'
p3351
tp3352
Rp3353
ag32
(g36
S'\x8a\t\xe1?'
p3354
tp3355
Rp3356
ag32
(g36
S'\x08@\x15@'
p3357
tp3358
Rp3359
ag32
(g36
S'*\xc0\xa4?'
p3360
tp3361
Rp3362
ag32
(g36
S'(H\xa9?'
p3363
tp3364
Rp3365
ag32
(g36
S'\x86o\xad?'
p3366
tp3367
Rp3368
ag32
(g36
S'T\xa6\x8c?'
p3369
tp3370
Rp3371
ag32
(g36
S'\x06\x1d\xe5?'
p3372
tp3373
Rp3374
ag32
(g36
S'\xe8\xd5\xc2?'
p3375
tp3376
Rp3377
ag32
(g36
S'\x8eG\x96?'
p3378
tp3379
Rp3380
ag32
(g36
S'\xe7\x98\x9e?'
p3381
tp3382
Rp3383
ag32
(g36
S'H\xc8\xce?'
p3384
tp3385
Rp3386
ag32
(g36
S'\x1a7\xe2?'
p3387
tp3388
Rp3389
ag32
(g36
S'{$\xe9?'
p3390
tp3391
Rp3392
ag32
(g36
S'\xad\x1a\x1a@'
p3393
tp3394
Rp3395
ag32
(g36
S'\x7f~\x07@'
p3396
tp3397
Rp3398
ag32
(g36
S'O,\xa0?'
p3399
tp3400
Rp3401
ag32
(g36
S':\x97\xc8?'
p3402
tp3403
Rp3404
ag32
(g36
S'l\\\x9a?'
p3405
tp3406
Rp3407
ag32
(g36
S'\x97~\x9e?'
p3408
tp3409
Rp3410
ag32
(g36
S'\xc0\xe8\xb5?'
p3411
tp3412
Rp3413
ag32
(g36
S'\xa0\x19\xc6?'
p3414
tp3415
Rp3416
ag32
(g36
S'f*\x94?'
p3417
tp3418
Rp3419
ag32
(g36
S'\xb4e\x8d?'
p3420
tp3421
Rp3422
ag32
(g36
S'\x9cr\xcb?'
p3423
tp3424
Rp3425
ag32
(g36
S'\xf0\xf8\x9a?'
p3426
tp3427
Rp3428
ag32
(g36
S'\x04\x03\xa1?'
p3429
tp3430
Rp3431
ag32
(g36
S'\x9b\xd5s?'
p3432
tp3433
Rp3434
asS'acc_test_resize'
p3435
(lp3436
sS'filepath'
p3437
S'/results/results-1000-1/para'
p3438
sS'acc_test'
p3439
(lp3440
sS'acc_val_normal'
p3441
(lp3442
sS'acc_train_resize'
p3443
(lp3444
sS'loss_normal'
p3445
(lp3446
sS'grid'
p3447
S'discrete'
p3448
sS'acc_val'
p3449
(lp3450
sS'acc_test_normal'
p3451
(lp3452
s.